(dp1
V\u5bfc\u5f39\u547d\u4e2d\u65f6\u76ee\u6807\u673a\u4e0e\u8f7d\u673a\u8ddd\u79bb\u5173\u7cfb\uff08\u5343\u7c73\uff09
p2
(dp3
V\u6240\u6709\u98de\u673a
p4
(dp5
V\u6240\u6709\u5bfc\u5f39
p6
(lp7
(lp8
I1
aI0
aa(lp9
I3
aI1
aa(lp10
I5
aI2
aa(lp11
I10
aI4
aa(lp12
I15
aI5
aa(lp13
I20
aI1
aa(lp14
I30
aI0
aa(lp15
I50
aI0
aa(lp16
I70
aI0
aa(lp17
I100
aI0
aasS'R-77'
p18
(lp19
(lp20
I1
aI0
aa(lp21
I3
aI1
aa(lp22
I5
aI0
aa(lp23
I10
aI1
aa(lp24
I15
aI2
aa(lp25
I20
aI0
aa(lp26
I30
aI0
aa(lp27
I50
aI0
aa(lp28
I70
aI0
aa(lp29
I100
aI0
aasS'R-27ER'
p30
(lp31
(lp32
I1
aI0
aa(lp33
I3
aI0
aa(lp34
I5
aI1
aa(lp35
I10
aI0
aa(lp36
I15
aI1
aa(lp37
I20
aI0
aa(lp38
I30
aI0
aa(lp39
I50
aI0
aa(lp40
I70
aI0
aa(lp41
I100
aI0
aasS'R-27ET'
p42
(lp43
(lp44
I1
aI0
aa(lp45
I3
aI0
aa(lp46
I5
aI1
aa(lp47
I10
aI3
aa(lp48
I15
aI2
aa(lp49
I20
aI1
aa(lp50
I30
aI0
aa(lp51
I50
aI0
aa(lp52
I70
aI0
aa(lp53
I100
aI0
aassS'MiG-29S'
p54
(dp55
g6
(lp56
(lp57
I1
aI0
aa(lp58
I3
aI0
aa(lp59
I5
aI0
aa(lp60
I10
aI2
aa(lp61
I15
aI2
aa(lp62
I20
aI0
aa(lp63
I30
aI0
aa(lp64
I50
aI0
aa(lp65
I70
aI0
aa(lp66
I100
aI0
aasg18
(lp67
(lp68
I1
aI0
aa(lp69
I3
aI0
aa(lp70
I5
aI0
aa(lp71
I10
aI0
aa(lp72
I15
aI2
aa(lp73
I20
aI0
aa(lp74
I30
aI0
aa(lp75
I50
aI0
aa(lp76
I70
aI0
aa(lp77
I100
aI0
aasg42
(lp78
(lp79
I1
aI0
aa(lp80
I3
aI0
aa(lp81
I5
aI0
aa(lp82
I10
aI2
aa(lp83
I15
aI0
aa(lp84
I20
aI0
aa(lp85
I30
aI0
aa(lp86
I50
aI0
aa(lp87
I70
aI0
aa(lp88
I100
aI0
aassS'Su-33'
p89
(dp90
g6
(lp91
(lp92
I1
aI0
aa(lp93
I3
aI1
aa(lp94
I5
aI1
aa(lp95
I10
aI1
aa(lp96
I15
aI0
aa(lp97
I20
aI0
aa(lp98
I30
aI0
aa(lp99
I50
aI0
aa(lp100
I70
aI0
aa(lp101
I100
aI0
aasg18
(lp102
(lp103
I1
aI0
aa(lp104
I3
aI1
aa(lp105
I5
aI0
aa(lp106
I10
aI1
aa(lp107
I15
aI0
aa(lp108
I20
aI0
aa(lp109
I30
aI0
aa(lp110
I50
aI0
aa(lp111
I70
aI0
aa(lp112
I100
aI0
aasg42
(lp113
(lp114
I1
aI0
aa(lp115
I3
aI0
aa(lp116
I5
aI1
aa(lp117
I10
aI0
aa(lp118
I15
aI0
aa(lp119
I20
aI0
aa(lp120
I30
aI0
aa(lp121
I50
aI0
aa(lp122
I70
aI0
aa(lp123
I100
aI0
aassS'Su-27'
p124
(dp125
g6
(lp126
(lp127
I1
aI0
aa(lp128
I3
aI0
aa(lp129
I5
aI1
aa(lp130
I10
aI1
aa(lp131
I15
aI3
aa(lp132
I20
aI1
aa(lp133
I30
aI0
aa(lp134
I50
aI0
aa(lp135
I70
aI0
aa(lp136
I100
aI0
aasg30
(lp137
(lp138
I1
aI0
aa(lp139
I3
aI0
aa(lp140
I5
aI1
aa(lp141
I10
aI0
aa(lp142
I15
aI1
aa(lp143
I20
aI0
aa(lp144
I30
aI0
aa(lp145
I50
aI0
aa(lp146
I70
aI0
aa(lp147
I100
aI0
aasg42
(lp148
(lp149
I1
aI0
aa(lp150
I3
aI0
aa(lp151
I5
aI0
aa(lp152
I10
aI1
aa(lp153
I15
aI2
aa(lp154
I20
aI1
aa(lp155
I30
aI0
aa(lp156
I50
aI0
aa(lp157
I70
aI0
aa(lp158
I100
aI0
aasssV\u5bfc\u5f39\u547d\u4e2d\u65f6\u76ee\u6807\u673a\u4e0e\u8f7d\u673a\u89d2\u5ea6\u5173\u7cfb
p159
(dp160
g4
(dp161
g6
(lp162
(lp163
I-45
aI1
aa(lp164
I-25
aI0
aa(lp165
I-10
aI2
aa(lp166
I-5
aI0
aa(lp167
I0
aI0
aa(lp168
I5
aI5
aa(lp169
I10
aI0
aa(lp170
I25
aI2
aa(lp171
I45
aI0
aa(lp172
I60
aI3
aasg18
(lp173
(lp174
I-45
aI0
aa(lp175
I-25
aI0
aa(lp176
I-10
aI0
aa(lp177
I-5
aI0
aa(lp178
I0
aI0
aa(lp179
I5
aI1
aa(lp180
I10
aI0
aa(lp181
I25
aI1
aa(lp182
I45
aI0
aa(lp183
I60
aI2
aasg30
(lp184
(lp185
I-45
aI0
aa(lp186
I-25
aI0
aa(lp187
I-10
aI1
aa(lp188
I-5
aI0
aa(lp189
I0
aI0
aa(lp190
I5
aI0
aa(lp191
I10
aI0
aa(lp192
I25
aI1
aa(lp193
I45
aI0
aa(lp194
I60
aI0
aasg42
(lp195
(lp196
I-45
aI1
aa(lp197
I-25
aI0
aa(lp198
I-10
aI1
aa(lp199
I-5
aI0
aa(lp200
I0
aI0
aa(lp201
I5
aI4
aa(lp202
I10
aI0
aa(lp203
I25
aI0
aa(lp204
I45
aI0
aa(lp205
I60
aI1
aassg54
(dp206
g6
(lp207
(lp208
I-45
aI0
aa(lp209
I-25
aI0
aa(lp210
I-10
aI1
aa(lp211
I-5
aI0
aa(lp212
I0
aI0
aa(lp213
I5
aI2
aa(lp214
I10
aI0
aa(lp215
I25
aI1
aa(lp216
I45
aI0
aa(lp217
I60
aI0
aasg18
(lp218
(lp219
I-45
aI0
aa(lp220
I-25
aI0
aa(lp221
I-10
aI0
aa(lp222
I-5
aI0
aa(lp223
I0
aI0
aa(lp224
I5
aI1
aa(lp225
I10
aI0
aa(lp226
I25
aI1
aa(lp227
I45
aI0
aa(lp228
I60
aI0
aasg42
(lp229
(lp230
I-45
aI0
aa(lp231
I-25
aI0
aa(lp232
I-10
aI1
aa(lp233
I-5
aI0
aa(lp234
I0
aI0
aa(lp235
I5
aI1
aa(lp236
I10
aI0
aa(lp237
I25
aI0
aa(lp238
I45
aI0
aa(lp239
I60
aI0
aassg89
(dp240
g6
(lp241
(lp242
I-45
aI0
aa(lp243
I-25
aI0
aa(lp244
I-10
aI0
aa(lp245
I-5
aI0
aa(lp246
I0
aI0
aa(lp247
I5
aI1
aa(lp248
I10
aI0
aa(lp249
I25
aI0
aa(lp250
I45
aI0
aa(lp251
I60
aI2
aasg18
(lp252
(lp253
I-45
aI0
aa(lp254
I-25
aI0
aa(lp255
I-10
aI0
aa(lp256
I-5
aI0
aa(lp257
I0
aI0
aa(lp258
I5
aI0
aa(lp259
I10
aI0
aa(lp260
I25
aI0
aa(lp261
I45
aI0
aa(lp262
I60
aI2
aasg42
(lp263
(lp264
I-45
aI0
aa(lp265
I-25
aI0
aa(lp266
I-10
aI0
aa(lp267
I-5
aI0
aa(lp268
I0
aI0
aa(lp269
I5
aI1
aa(lp270
I10
aI0
aa(lp271
I25
aI0
aa(lp272
I45
aI0
aa(lp273
I60
aI0
aassg124
(dp274
g6
(lp275
(lp276
I-45
aI1
aa(lp277
I-25
aI0
aa(lp278
I-10
aI1
aa(lp279
I-5
aI0
aa(lp280
I0
aI0
aa(lp281
I5
aI2
aa(lp282
I10
aI0
aa(lp283
I25
aI1
aa(lp284
I45
aI0
aa(lp285
I60
aI1
aasg30
(lp286
(lp287
I-45
aI0
aa(lp288
I-25
aI0
aa(lp289
I-10
aI1
aa(lp290
I-5
aI0
aa(lp291
I0
aI0
aa(lp292
I5
aI0
aa(lp293
I10
aI0
aa(lp294
I25
aI1
aa(lp295
I45
aI0
aa(lp296
I60
aI0
aasg42
(lp297
(lp298
I-45
aI1
aa(lp299
I-25
aI0
aa(lp300
I-10
aI0
aa(lp301
I-5
aI0
aa(lp302
I0
aI0
aa(lp303
I5
aI2
aa(lp304
I10
aI0
aa(lp305
I25
aI0
aa(lp306
I45
aI0
aa(lp307
I60
aI1
aasssV\u53d1\u5c04\u5bfc\u5f39\u65f6\u8f7d\u673a\u8fc7\u8f7d (g)
p308
(dp309
g4
(dp310
g18
(lp311
(lp312
I1
aI4
aa(lp313
I2
aI4
aa(lp314
I3
aI2
aa(lp315
I4
aI2
aa(lp316
I5
aI2
aa(lp317
I6
aI0
aa(lp318
I7
aI0
aa(lp319
I8
aI0
aa(lp320
I9
aI0
aa(lp321
I10
aI0
aasS'R-73'
p322
(lp323
(lp324
I1
aI1
aa(lp325
I2
aI0
aa(lp326
I3
aI1
aa(lp327
I4
aI0
aa(lp328
I5
aI1
aa(lp329
I6
aI0
aa(lp330
I7
aI0
aa(lp331
I8
aI0
aa(lp332
I9
aI0
aa(lp333
I10
aI0
aasg6
(lp334
(lp335
I1
aI17
aa(lp336
I2
aI7
aa(lp337
I3
aI4
aa(lp338
I4
aI6
aa(lp339
I5
aI4
aa(lp340
I6
aI2
aa(lp341
I7
aI0
aa(lp342
I8
aI0
aa(lp343
I9
aI1
aa(lp344
I10
aI1
aasg30
(lp345
(lp346
I1
aI7
aa(lp347
I2
aI2
aa(lp348
I3
aI1
aa(lp349
I4
aI1
aa(lp350
I5
aI1
aa(lp351
I6
aI0
aa(lp352
I7
aI0
aa(lp353
I8
aI0
aa(lp354
I9
aI0
aa(lp355
I10
aI0
aasg42
(lp356
(lp357
I1
aI5
aa(lp358
I2
aI1
aa(lp359
I3
aI0
aa(lp360
I4
aI3
aa(lp361
I5
aI0
aa(lp362
I6
aI2
aa(lp363
I7
aI0
aa(lp364
I8
aI0
aa(lp365
I9
aI1
aa(lp366
I10
aI0
aasS'AIM-120'
p367
(lp368
(lp369
I1
aI0
aa(lp370
I2
aI0
aa(lp371
I3
aI0
aa(lp372
I4
aI0
aa(lp373
I5
aI0
aa(lp374
I6
aI0
aa(lp375
I7
aI0
aa(lp376
I8
aI0
aa(lp377
I9
aI0
aa(lp378
I10
aI1
aassg54
(dp379
g6
(lp380
(lp381
I1
aI8
aa(lp382
I2
aI5
aa(lp383
I3
aI0
aa(lp384
I4
aI3
aa(lp385
I5
aI2
aa(lp386
I6
aI1
aa(lp387
I7
aI0
aa(lp388
I8
aI0
aa(lp389
I9
aI0
aa(lp390
I10
aI0
aasg18
(lp391
(lp392
I1
aI4
aa(lp393
I2
aI3
aa(lp394
I3
aI0
aa(lp395
I4
aI1
aa(lp396
I5
aI1
aa(lp397
I6
aI0
aa(lp398
I7
aI0
aa(lp399
I8
aI0
aa(lp400
I9
aI0
aa(lp401
I10
aI0
aasg30
(lp402
(lp403
I1
aI1
aa(lp404
I2
aI1
aa(lp405
I3
aI0
aa(lp406
I4
aI0
aa(lp407
I5
aI0
aa(lp408
I6
aI0
aa(lp409
I7
aI0
aa(lp410
I8
aI0
aa(lp411
I9
aI0
aa(lp412
I10
aI0
aasg322
(lp413
(lp414
I1
aI1
aa(lp415
I2
aI0
aa(lp416
I3
aI0
aa(lp417
I4
aI0
aa(lp418
I5
aI1
aa(lp419
I6
aI0
aa(lp420
I7
aI0
aa(lp421
I8
aI0
aa(lp422
I9
aI0
aa(lp423
I10
aI0
aasg42
(lp424
(lp425
I1
aI2
aa(lp426
I2
aI1
aa(lp427
I3
aI0
aa(lp428
I4
aI2
aa(lp429
I5
aI0
aa(lp430
I6
aI1
aa(lp431
I7
aI0
aa(lp432
I8
aI0
aa(lp433
I9
aI0
aa(lp434
I10
aI0
aassS'F-15C'
p435
(dp436
g6
(lp437
(lp438
I1
aI0
aa(lp439
I2
aI0
aa(lp440
I3
aI0
aa(lp441
I4
aI0
aa(lp442
I5
aI0
aa(lp443
I6
aI0
aa(lp444
I7
aI0
aa(lp445
I8
aI0
aa(lp446
I9
aI0
aa(lp447
I10
aI1
aasg367
(lp448
(lp449
I1
aI0
aa(lp450
I2
aI0
aa(lp451
I3
aI0
aa(lp452
I4
aI0
aa(lp453
I5
aI0
aa(lp454
I6
aI0
aa(lp455
I7
aI0
aa(lp456
I8
aI0
aa(lp457
I9
aI0
aa(lp458
I10
aI1
aassg89
(dp459
g6
(lp460
(lp461
I1
aI0
aa(lp462
I2
aI1
aa(lp463
I3
aI2
aa(lp464
I4
aI1
aa(lp465
I5
aI1
aa(lp466
I6
aI0
aa(lp467
I7
aI0
aa(lp468
I8
aI0
aa(lp469
I9
aI1
aa(lp470
I10
aI0
aasg18
(lp471
(lp472
I1
aI0
aa(lp473
I2
aI1
aa(lp474
I3
aI2
aa(lp475
I4
aI1
aa(lp476
I5
aI1
aa(lp477
I6
aI0
aa(lp478
I7
aI0
aa(lp479
I8
aI0
aa(lp480
I9
aI0
aa(lp481
I10
aI0
aasg42
(lp482
(lp483
I1
aI0
aa(lp484
I2
aI0
aa(lp485
I3
aI0
aa(lp486
I4
aI0
aa(lp487
I5
aI0
aa(lp488
I6
aI0
aa(lp489
I7
aI0
aa(lp490
I8
aI0
aa(lp491
I9
aI1
aa(lp492
I10
aI0
aassg124
(dp493
g6
(lp494
(lp495
I1
aI9
aa(lp496
I2
aI1
aa(lp497
I3
aI2
aa(lp498
I4
aI2
aa(lp499
I5
aI1
aa(lp500
I6
aI1
aa(lp501
I7
aI0
aa(lp502
I8
aI0
aa(lp503
I9
aI0
aa(lp504
I10
aI0
aasg30
(lp505
(lp506
I1
aI6
aa(lp507
I2
aI1
aa(lp508
I3
aI1
aa(lp509
I4
aI1
aa(lp510
I5
aI1
aa(lp511
I6
aI0
aa(lp512
I7
aI0
aa(lp513
I8
aI0
aa(lp514
I9
aI0
aa(lp515
I10
aI0
aasg322
(lp516
(lp517
I1
aI0
aa(lp518
I2
aI0
aa(lp519
I3
aI1
aa(lp520
I4
aI0
aa(lp521
I5
aI0
aa(lp522
I6
aI0
aa(lp523
I7
aI0
aa(lp524
I8
aI0
aa(lp525
I9
aI0
aa(lp526
I10
aI0
aasg42
(lp527
(lp528
I1
aI3
aa(lp529
I2
aI0
aa(lp530
I3
aI0
aa(lp531
I4
aI1
aa(lp532
I5
aI0
aa(lp533
I6
aI1
aa(lp534
I7
aI0
aa(lp535
I8
aI0
aa(lp536
I9
aI0
aa(lp537
I10
aI0
aasssV\u5bfc\u5f39\u8131\u9776\u65f6\u76ee\u6807\u673a\u901f\u5ea6\uff08\u5343\u7c73\u6bcf\u5c0f\u65f6\uff09
p538
(dp539
g4
(dp540
g18
(lp541
(lp542
I400
aI0
aa(lp543
I500
aI0
aa(lp544
I600
aI1
aa(lp545
I700
aI1
aa(lp546
I900
aI1
aa(lp547
I1100
aI3
aa(lp548
I1300
aI0
aa(lp549
I1500
aI2
aa(lp550
I1800
aI0
aa(lp551
I2000
aI0
aasg322
(lp552
(lp553
I400
aI0
aa(lp554
I500
aI0
aa(lp555
I600
aI0
aa(lp556
I700
aI0
aa(lp557
I900
aI0
aa(lp558
I1100
aI0
aa(lp559
I1300
aI0
aa(lp560
I1500
aI1
aa(lp561
I1800
aI0
aa(lp562
I2000
aI0
aasg6
(lp563
(lp564
I400
aI0
aa(lp565
I500
aI0
aa(lp566
I600
aI1
aa(lp567
I700
aI2
aa(lp568
I900
aI2
aa(lp569
I1100
aI11
aa(lp570
I1300
aI3
aa(lp571
I1500
aI6
aa(lp572
I1800
aI0
aa(lp573
I2000
aI0
aasg30
(lp574
(lp575
I400
aI0
aa(lp576
I500
aI0
aa(lp577
I600
aI0
aa(lp578
I700
aI0
aa(lp579
I900
aI0
aa(lp580
I1100
aI5
aa(lp581
I1300
aI2
aa(lp582
I1500
aI1
aa(lp583
I1800
aI0
aa(lp584
I2000
aI0
aasg42
(lp585
(lp586
I400
aI0
aa(lp587
I500
aI0
aa(lp588
I600
aI0
aa(lp589
I700
aI1
aa(lp590
I900
aI0
aa(lp591
I1100
aI3
aa(lp592
I1300
aI1
aa(lp593
I1500
aI2
aa(lp594
I1800
aI0
aa(lp595
I2000
aI0
aasg367
(lp596
(lp597
I400
aI0
aa(lp598
I500
aI0
aa(lp599
I600
aI0
aa(lp600
I700
aI0
aa(lp601
I900
aI1
aa(lp602
I1100
aI0
aa(lp603
I1300
aI0
aa(lp604
I1500
aI0
aa(lp605
I1800
aI0
aa(lp606
I2000
aI0
aassg54
(dp607
g6
(lp608
(lp609
I400
aI0
aa(lp610
I500
aI0
aa(lp611
I600
aI1
aa(lp612
I700
aI0
aa(lp613
I900
aI1
aa(lp614
I1100
aI5
aa(lp615
I1300
aI1
aa(lp616
I1500
aI4
aa(lp617
I1800
aI0
aa(lp618
I2000
aI0
aasg18
(lp619
(lp620
I400
aI0
aa(lp621
I500
aI0
aa(lp622
I600
aI1
aa(lp623
I700
aI0
aa(lp624
I900
aI1
aa(lp625
I1100
aI0
aa(lp626
I1300
aI0
aa(lp627
I1500
aI2
aa(lp628
I1800
aI0
aa(lp629
I2000
aI0
aasg30
(lp630
(lp631
I400
aI0
aa(lp632
I500
aI0
aa(lp633
I600
aI0
aa(lp634
I700
aI0
aa(lp635
I900
aI0
aa(lp636
I1100
aI2
aa(lp637
I1300
aI0
aa(lp638
I1500
aI1
aa(lp639
I1800
aI0
aa(lp640
I2000
aI0
aasg322
(lp641
(lp642
I400
aI0
aa(lp643
I500
aI0
aa(lp644
I600
aI0
aa(lp645
I700
aI0
aa(lp646
I900
aI0
aa(lp647
I1100
aI0
aa(lp648
I1300
aI0
aa(lp649
I1500
aI1
aa(lp650
I1800
aI0
aa(lp651
I2000
aI0
aasg42
(lp652
(lp653
I400
aI0
aa(lp654
I500
aI0
aa(lp655
I600
aI0
aa(lp656
I700
aI0
aa(lp657
I900
aI0
aa(lp658
I1100
aI3
aa(lp659
I1300
aI1
aa(lp660
I1500
aI0
aa(lp661
I1800
aI0
aa(lp662
I2000
aI0
aassg435
(dp663
g6
(lp664
(lp665
I400
aI0
aa(lp666
I500
aI0
aa(lp667
I600
aI0
aa(lp668
I700
aI0
aa(lp669
I900
aI1
aa(lp670
I1100
aI0
aa(lp671
I1300
aI0
aa(lp672
I1500
aI0
aa(lp673
I1800
aI0
aa(lp674
I2000
aI0
aasg367
(lp675
(lp676
I400
aI0
aa(lp677
I500
aI0
aa(lp678
I600
aI0
aa(lp679
I700
aI0
aa(lp680
I900
aI1
aa(lp681
I1100
aI0
aa(lp682
I1300
aI0
aa(lp683
I1500
aI0
aa(lp684
I1800
aI0
aa(lp685
I2000
aI0
aassg89
(dp686
g6
(lp687
(lp688
I400
aI0
aa(lp689
I500
aI0
aa(lp690
I600
aI0
aa(lp691
I700
aI1
aa(lp692
I900
aI0
aa(lp693
I1100
aI2
aa(lp694
I1300
aI0
aa(lp695
I1500
aI0
aa(lp696
I1800
aI0
aa(lp697
I2000
aI0
aasg18
(lp698
(lp699
I400
aI0
aa(lp700
I500
aI0
aa(lp701
I600
aI0
aa(lp702
I700
aI1
aa(lp703
I900
aI0
aa(lp704
I1100
aI2
aa(lp705
I1300
aI0
aa(lp706
I1500
aI0
aa(lp707
I1800
aI0
aa(lp708
I2000
aI0
aassg124
(dp709
g6
(lp710
(lp711
I400
aI0
aa(lp712
I500
aI0
aa(lp713
I600
aI0
aa(lp714
I700
aI1
aa(lp715
I900
aI0
aa(lp716
I1100
aI4
aa(lp717
I1300
aI2
aa(lp718
I1500
aI2
aa(lp719
I1800
aI0
aa(lp720
I2000
aI0
aasg18
(lp721
(lp722
I400
aI0
aa(lp723
I500
aI0
aa(lp724
I600
aI0
aa(lp725
I700
aI0
aa(lp726
I900
aI0
aa(lp727
I1100
aI1
aa(lp728
I1300
aI0
aa(lp729
I1500
aI0
aa(lp730
I1800
aI0
aa(lp731
I2000
aI0
aasg30
(lp732
(lp733
I400
aI0
aa(lp734
I500
aI0
aa(lp735
I600
aI0
aa(lp736
I700
aI0
aa(lp737
I900
aI0
aa(lp738
I1100
aI3
aa(lp739
I1300
aI2
aa(lp740
I1500
aI0
aa(lp741
I1800
aI0
aa(lp742
I2000
aI0
aasg42
(lp743
(lp744
I400
aI0
aa(lp745
I500
aI0
aa(lp746
I600
aI0
aa(lp747
I700
aI1
aa(lp748
I900
aI0
aa(lp749
I1100
aI0
aa(lp750
I1300
aI0
aa(lp751
I1500
aI2
aa(lp752
I1800
aI0
aa(lp753
I2000
aI0
aasssV\u5bfc\u5f39\u8131\u9776\u65f6\u9ad8\u5ea6\u5173\u7cfb\uff08\u7c73\uff09
p754
(dp755
g4
(dp756
g18
(lp757
(lp758
I-4000
aI0
aa(lp759
I-3000
aI1
aa(lp760
I-2000
aI1
aa(lp761
I-1000
aI2
aa(lp762
I0
aI3
aa(lp763
I1000
aI0
aa(lp764
I2000
aI2
aa(lp765
I3000
aI0
aa(lp766
I4000
aI0
aa(lp767
I5000
aI0
aasg322
(lp768
(lp769
I-4000
aI0
aa(lp770
I-3000
aI0
aa(lp771
I-2000
aI0
aa(lp772
I-1000
aI0
aa(lp773
I0
aI1
aa(lp774
I1000
aI0
aa(lp775
I2000
aI0
aa(lp776
I3000
aI0
aa(lp777
I4000
aI0
aa(lp778
I5000
aI0
aasg6
(lp779
(lp780
I-4000
aI2
aa(lp781
I-3000
aI1
aa(lp782
I-2000
aI1
aa(lp783
I-1000
aI4
aa(lp784
I0
aI9
aa(lp785
I1000
aI1
aa(lp786
I2000
aI4
aa(lp787
I3000
aI0
aa(lp788
I4000
aI0
aa(lp789
I5000
aI0
aasg30
(lp790
(lp791
I-4000
aI1
aa(lp792
I-3000
aI0
aa(lp793
I-2000
aI0
aa(lp794
I-1000
aI2
aa(lp795
I0
aI2
aa(lp796
I1000
aI0
aa(lp797
I2000
aI1
aa(lp798
I3000
aI0
aa(lp799
I4000
aI0
aa(lp800
I5000
aI0
aasg42
(lp801
(lp802
I-4000
aI0
aa(lp803
I-3000
aI0
aa(lp804
I-2000
aI0
aa(lp805
I-1000
aI0
aa(lp806
I0
aI3
aa(lp807
I1000
aI1
aa(lp808
I2000
aI1
aa(lp809
I3000
aI0
aa(lp810
I4000
aI0
aa(lp811
I5000
aI0
aasg367
(lp812
(lp813
I-4000
aI1
aa(lp814
I-3000
aI0
aa(lp815
I-2000
aI0
aa(lp816
I-1000
aI0
aa(lp817
I0
aI0
aa(lp818
I1000
aI0
aa(lp819
I2000
aI0
aa(lp820
I3000
aI0
aa(lp821
I4000
aI0
aa(lp822
I5000
aI0
aassg54
(dp823
g6
(lp824
(lp825
I-4000
aI1
aa(lp826
I-3000
aI1
aa(lp827
I-2000
aI0
aa(lp828
I-1000
aI2
aa(lp829
I0
aI5
aa(lp830
I1000
aI1
aa(lp831
I2000
aI2
aa(lp832
I3000
aI0
aa(lp833
I4000
aI0
aa(lp834
I5000
aI0
aasg18
(lp835
(lp836
I-4000
aI0
aa(lp837
I-3000
aI1
aa(lp838
I-2000
aI0
aa(lp839
I-1000
aI0
aa(lp840
I0
aI2
aa(lp841
I1000
aI0
aa(lp842
I2000
aI1
aa(lp843
I3000
aI0
aa(lp844
I4000
aI0
aa(lp845
I5000
aI0
aasg30
(lp846
(lp847
I-4000
aI1
aa(lp848
I-3000
aI0
aa(lp849
I-2000
aI0
aa(lp850
I-1000
aI2
aa(lp851
I0
aI0
aa(lp852
I1000
aI0
aa(lp853
I2000
aI0
aa(lp854
I3000
aI0
aa(lp855
I4000
aI0
aa(lp856
I5000
aI0
aasg322
(lp857
(lp858
I-4000
aI0
aa(lp859
I-3000
aI0
aa(lp860
I-2000
aI0
aa(lp861
I-1000
aI0
aa(lp862
I0
aI1
aa(lp863
I1000
aI0
aa(lp864
I2000
aI0
aa(lp865
I3000
aI0
aa(lp866
I4000
aI0
aa(lp867
I5000
aI0
aasg42
(lp868
(lp869
I-4000
aI0
aa(lp870
I-3000
aI0
aa(lp871
I-2000
aI0
aa(lp872
I-1000
aI0
aa(lp873
I0
aI2
aa(lp874
I1000
aI1
aa(lp875
I2000
aI1
aa(lp876
I3000
aI0
aa(lp877
I4000
aI0
aa(lp878
I5000
aI0
aassg435
(dp879
g6
(lp880
(lp881
I-4000
aI1
aa(lp882
I-3000
aI0
aa(lp883
I-2000
aI0
aa(lp884
I-1000
aI0
aa(lp885
I0
aI0
aa(lp886
I1000
aI0
aa(lp887
I2000
aI0
aa(lp888
I3000
aI0
aa(lp889
I4000
aI0
aa(lp890
I5000
aI0
aasg367
(lp891
(lp892
I-4000
aI1
aa(lp893
I-3000
aI0
aa(lp894
I-2000
aI0
aa(lp895
I-1000
aI0
aa(lp896
I0
aI0
aa(lp897
I1000
aI0
aa(lp898
I2000
aI0
aa(lp899
I3000
aI0
aa(lp900
I4000
aI0
aa(lp901
I5000
aI0
aassg89
(dp902
g6
(lp903
(lp904
I-4000
aI0
aa(lp905
I-3000
aI0
aa(lp906
I-2000
aI0
aa(lp907
I-1000
aI2
aa(lp908
I0
aI1
aa(lp909
I1000
aI0
aa(lp910
I2000
aI1
aa(lp911
I3000
aI0
aa(lp912
I4000
aI0
aa(lp913
I5000
aI0
aasg18
(lp914
(lp915
I-4000
aI0
aa(lp916
I-3000
aI0
aa(lp917
I-2000
aI0
aa(lp918
I-1000
aI2
aa(lp919
I0
aI1
aa(lp920
I1000
aI0
aa(lp921
I2000
aI1
aa(lp922
I3000
aI0
aa(lp923
I4000
aI0
aa(lp924
I5000
aI0
aassg124
(dp925
g6
(lp926
(lp927
I-4000
aI0
aa(lp928
I-3000
aI0
aa(lp929
I-2000
aI1
aa(lp930
I-1000
aI0
aa(lp931
I0
aI3
aa(lp932
I1000
aI0
aa(lp933
I2000
aI1
aa(lp934
I3000
aI0
aa(lp935
I4000
aI0
aa(lp936
I5000
aI0
aasg18
(lp937
(lp938
I-4000
aI0
aa(lp939
I-3000
aI0
aa(lp940
I-2000
aI1
aa(lp941
I-1000
aI0
aa(lp942
I0
aI0
aa(lp943
I1000
aI0
aa(lp944
I2000
aI0
aa(lp945
I3000
aI0
aa(lp946
I4000
aI0
aa(lp947
I5000
aI0
aasg30
(lp948
(lp949
I-4000
aI0
aa(lp950
I-3000
aI0
aa(lp951
I-2000
aI0
aa(lp952
I-1000
aI0
aa(lp953
I0
aI2
aa(lp954
I1000
aI0
aa(lp955
I2000
aI1
aa(lp956
I3000
aI0
aa(lp957
I4000
aI0
aa(lp958
I5000
aI0
aasg42
(lp959
(lp960
I-4000
aI0
aa(lp961
I-3000
aI0
aa(lp962
I-2000
aI0
aa(lp963
I-1000
aI0
aa(lp964
I0
aI1
aa(lp965
I1000
aI0
aa(lp966
I2000
aI0
aa(lp967
I3000
aI0
aa(lp968
I4000
aI0
aa(lp969
I5000
aI0
aasssV\u53d1\u5c04\u5bfc\u5f39\u65f6\u76ee\u6807\u673a\u9a6c\u8d6b\u6570
p970
(dp971
g4
(dp972
g6
(lp973
(lp974
F0.29999999999999999
aI1
aa(lp975
F0.40000000000000002
aI1
aa(lp976
F0.5
aI2
aa(lp977
F0.59999999999999998
aI0
aa(lp978
F0.80000000000000004
aI5
aa(lp979
F1
aI6
aa(lp980
F1.2
aI3
aa(lp981
F1.5
aI3
aa(lp982
F1.8
aI1
aa(lp983
F2
aI0
aasg18
(lp984
(lp985
F0.29999999999999999
aI0
aa(lp986
F0.40000000000000002
aI0
aa(lp987
F0.5
aI2
aa(lp988
F0.59999999999999998
aI0
aa(lp989
F0.80000000000000004
aI1
aa(lp990
F1
aI2
aa(lp991
F1.2
aI1
aa(lp992
F1.5
aI1
aa(lp993
F1.8
aI0
aa(lp994
F2
aI0
aasg367
(lp995
(lp996
F0.29999999999999999
aI0
aa(lp997
F0.40000000000000002
aI0
aa(lp998
F0.5
aI0
aa(lp999
F0.59999999999999998
aI0
aa(lp1000
F0.80000000000000004
aI0
aa(lp1001
F1
aI1
aa(lp1002
F1.2
aI0
aa(lp1003
F1.5
aI0
aa(lp1004
F1.8
aI0
aa(lp1005
F2
aI0
aasg30
(lp1006
(lp1007
F0.29999999999999999
aI0
aa(lp1008
F0.40000000000000002
aI0
aa(lp1009
F0.5
aI0
aa(lp1010
F0.59999999999999998
aI0
aa(lp1011
F0.80000000000000004
aI2
aa(lp1012
F1
aI1
aa(lp1013
F1.2
aI0
aa(lp1014
F1.5
aI1
aa(lp1015
F1.8
aI1
aa(lp1016
F2
aI0
aasg42
(lp1017
(lp1018
F0.29999999999999999
aI1
aa(lp1019
F0.40000000000000002
aI1
aa(lp1020
F0.5
aI0
aa(lp1021
F0.59999999999999998
aI0
aa(lp1022
F0.80000000000000004
aI2
aa(lp1023
F1
aI2
aa(lp1024
F1.2
aI2
aa(lp1025
F1.5
aI1
aa(lp1026
F1.8
aI0
aa(lp1027
F2
aI0
aassg54
(dp1028
g6
(lp1029
(lp1030
F0.29999999999999999
aI0
aa(lp1031
F0.40000000000000002
aI1
aa(lp1032
F0.5
aI1
aa(lp1033
F0.59999999999999998
aI0
aa(lp1034
F0.80000000000000004
aI2
aa(lp1035
F1
aI3
aa(lp1036
F1.2
aI2
aa(lp1037
F1.5
aI1
aa(lp1038
F1.8
aI0
aa(lp1039
F2
aI0
aasg18
(lp1040
(lp1041
F0.29999999999999999
aI0
aa(lp1042
F0.40000000000000002
aI0
aa(lp1043
F0.5
aI1
aa(lp1044
F0.59999999999999998
aI0
aa(lp1045
F0.80000000000000004
aI0
aa(lp1046
F1
aI1
aa(lp1047
F1.2
aI1
aa(lp1048
F1.5
aI1
aa(lp1049
F1.8
aI0
aa(lp1050
F2
aI0
aasg30
(lp1051
(lp1052
F0.29999999999999999
aI0
aa(lp1053
F0.40000000000000002
aI0
aa(lp1054
F0.5
aI0
aa(lp1055
F0.59999999999999998
aI0
aa(lp1056
F0.80000000000000004
aI1
aa(lp1057
F1
aI1
aa(lp1058
F1.2
aI0
aa(lp1059
F1.5
aI0
aa(lp1060
F1.8
aI0
aa(lp1061
F2
aI0
aasg42
(lp1062
(lp1063
F0.29999999999999999
aI0
aa(lp1064
F0.40000000000000002
aI1
aa(lp1065
F0.5
aI0
aa(lp1066
F0.59999999999999998
aI0
aa(lp1067
F0.80000000000000004
aI1
aa(lp1068
F1
aI1
aa(lp1069
F1.2
aI1
aa(lp1070
F1.5
aI0
aa(lp1071
F1.8
aI0
aa(lp1072
F2
aI0
aassg435
(dp1073
g6
(lp1074
(lp1075
F0.29999999999999999
aI0
aa(lp1076
F0.40000000000000002
aI0
aa(lp1077
F0.5
aI0
aa(lp1078
F0.59999999999999998
aI0
aa(lp1079
F0.80000000000000004
aI0
aa(lp1080
F1
aI1
aa(lp1081
F1.2
aI0
aa(lp1082
F1.5
aI0
aa(lp1083
F1.8
aI0
aa(lp1084
F2
aI0
aasg367
(lp1085
(lp1086
F0.29999999999999999
aI0
aa(lp1087
F0.40000000000000002
aI0
aa(lp1088
F0.5
aI0
aa(lp1089
F0.59999999999999998
aI0
aa(lp1090
F0.80000000000000004
aI0
aa(lp1091
F1
aI1
aa(lp1092
F1.2
aI0
aa(lp1093
F1.5
aI0
aa(lp1094
F1.8
aI0
aa(lp1095
F2
aI0
aassg89
(dp1096
g6
(lp1097
(lp1098
F0.29999999999999999
aI0
aa(lp1099
F0.40000000000000002
aI0
aa(lp1100
F0.5
aI1
aa(lp1101
F0.59999999999999998
aI0
aa(lp1102
F0.80000000000000004
aI1
aa(lp1103
F1
aI1
aa(lp1104
F1.2
aI1
aa(lp1105
F1.5
aI0
aa(lp1106
F1.8
aI0
aa(lp1107
F2
aI0
aasg18
(lp1108
(lp1109
F0.29999999999999999
aI0
aa(lp1110
F0.40000000000000002
aI0
aa(lp1111
F0.5
aI1
aa(lp1112
F0.59999999999999998
aI0
aa(lp1113
F0.80000000000000004
aI1
aa(lp1114
F1
aI1
aa(lp1115
F1.2
aI0
aa(lp1116
F1.5
aI0
aa(lp1117
F1.8
aI0
aa(lp1118
F2
aI0
aasg42
(lp1119
(lp1120
F0.29999999999999999
aI0
aa(lp1121
F0.40000000000000002
aI0
aa(lp1122
F0.5
aI0
aa(lp1123
F0.59999999999999998
aI0
aa(lp1124
F0.80000000000000004
aI0
aa(lp1125
F1
aI0
aa(lp1126
F1.2
aI1
aa(lp1127
F1.5
aI0
aa(lp1128
F1.8
aI0
aa(lp1129
F2
aI0
aassg124
(dp1130
g6
(lp1131
(lp1132
F0.29999999999999999
aI1
aa(lp1133
F0.40000000000000002
aI0
aa(lp1134
F0.5
aI0
aa(lp1135
F0.59999999999999998
aI0
aa(lp1136
F0.80000000000000004
aI2
aa(lp1137
F1
aI1
aa(lp1138
F1.2
aI0
aa(lp1139
F1.5
aI2
aa(lp1140
F1.8
aI1
aa(lp1141
F2
aI0
aasg30
(lp1142
(lp1143
F0.29999999999999999
aI0
aa(lp1144
F0.40000000000000002
aI0
aa(lp1145
F0.5
aI0
aa(lp1146
F0.59999999999999998
aI0
aa(lp1147
F0.80000000000000004
aI1
aa(lp1148
F1
aI0
aa(lp1149
F1.2
aI0
aa(lp1150
F1.5
aI1
aa(lp1151
F1.8
aI1
aa(lp1152
F2
aI0
aasg42
(lp1153
(lp1154
F0.29999999999999999
aI1
aa(lp1155
F0.40000000000000002
aI0
aa(lp1156
F0.5
aI0
aa(lp1157
F0.59999999999999998
aI0
aa(lp1158
F0.80000000000000004
aI1
aa(lp1159
F1
aI1
aa(lp1160
F1.2
aI0
aa(lp1161
F1.5
aI1
aa(lp1162
F1.8
aI0
aa(lp1163
F2
aI0
aasssV\u53d1\u5c04\u5bfc\u5f39\u65f6\u8f7d\u673a\u771f\u7a7a\u901f\u5ea6\uff08\u5343\u7c73\u6bcf\u5c0f\u65f6\uff09
p1164
(dp1165
g4
(dp1166
g18
(lp1167
(lp1168
I400
aI0
aa(lp1169
I500
aI0
aa(lp1170
I600
aI0
aa(lp1171
I700
aI0
aa(lp1172
I900
aI3
aa(lp1173
I1100
aI2
aa(lp1174
I1300
aI2
aa(lp1175
I1500
aI6
aa(lp1176
I1800
aI4
aa(lp1177
I2000
aI2
aasg322
(lp1178
(lp1179
I400
aI0
aa(lp1180
I500
aI0
aa(lp1181
I600
aI0
aa(lp1182
I700
aI1
aa(lp1183
I900
aI2
aa(lp1184
I1100
aI0
aa(lp1185
I1300
aI0
aa(lp1186
I1500
aI0
aa(lp1187
I1800
aI0
aa(lp1188
I2000
aI0
aasg6
(lp1189
(lp1190
I400
aI0
aa(lp1191
I500
aI0
aa(lp1192
I600
aI1
aa(lp1193
I700
aI3
aa(lp1194
I900
aI9
aa(lp1195
I1100
aI13
aa(lp1196
I1300
aI9
aa(lp1197
I1500
aI16
aa(lp1198
I1800
aI15
aa(lp1199
I2000
aI5
aasg30
(lp1200
(lp1201
I400
aI0
aa(lp1202
I500
aI0
aa(lp1203
I600
aI0
aa(lp1204
I700
aI0
aa(lp1205
I900
aI2
aa(lp1206
I1100
aI4
aa(lp1207
I1300
aI3
aa(lp1208
I1500
aI7
aa(lp1209
I1800
aI3
aa(lp1210
I2000
aI1
aasS'AIM-7'
p1211
(lp1212
(lp1213
I400
aI0
aa(lp1214
I500
aI0
aa(lp1215
I600
aI0
aa(lp1216
I700
aI0
aa(lp1217
I900
aI0
aa(lp1218
I1100
aI0
aa(lp1219
I1300
aI0
aa(lp1220
I1500
aI0
aa(lp1221
I1800
aI2
aa(lp1222
I2000
aI1
aasg42
(lp1223
(lp1224
I400
aI0
aa(lp1225
I500
aI0
aa(lp1226
I600
aI0
aa(lp1227
I700
aI1
aa(lp1228
I900
aI2
aa(lp1229
I1100
aI6
aa(lp1230
I1300
aI2
aa(lp1231
I1500
aI1
aa(lp1232
I1800
aI4
aa(lp1233
I2000
aI1
aasg367
(lp1234
(lp1235
I400
aI0
aa(lp1236
I500
aI0
aa(lp1237
I600
aI1
aa(lp1238
I700
aI1
aa(lp1239
I900
aI0
aa(lp1240
I1100
aI1
aa(lp1241
I1300
aI2
aa(lp1242
I1500
aI2
aa(lp1243
I1800
aI2
aa(lp1244
I2000
aI0
aassg54
(dp1245
g6
(lp1246
(lp1247
I400
aI0
aa(lp1248
I500
aI0
aa(lp1249
I600
aI0
aa(lp1250
I700
aI1
aa(lp1251
I900
aI6
aa(lp1252
I1100
aI4
aa(lp1253
I1300
aI3
aa(lp1254
I1500
aI6
aa(lp1255
I1800
aI5
aa(lp1256
I2000
aI1
aasg18
(lp1257
(lp1258
I400
aI0
aa(lp1259
I500
aI0
aa(lp1260
I600
aI0
aa(lp1261
I700
aI0
aa(lp1262
I900
aI3
aa(lp1263
I1100
aI1
aa(lp1264
I1300
aI2
aa(lp1265
I1500
aI5
aa(lp1266
I1800
aI1
aa(lp1267
I2000
aI0
aasg30
(lp1268
(lp1269
I400
aI0
aa(lp1270
I500
aI0
aa(lp1271
I600
aI0
aa(lp1272
I700
aI0
aa(lp1273
I900
aI0
aa(lp1274
I1100
aI1
aa(lp1275
I1300
aI1
aa(lp1276
I1500
aI0
aa(lp1277
I1800
aI1
aa(lp1278
I2000
aI1
aasg322
(lp1279
(lp1280
I400
aI0
aa(lp1281
I500
aI0
aa(lp1282
I600
aI0
aa(lp1283
I700
aI0
aa(lp1284
I900
aI2
aa(lp1285
I1100
aI0
aa(lp1286
I1300
aI0
aa(lp1287
I1500
aI0
aa(lp1288
I1800
aI0
aa(lp1289
I2000
aI0
aasg42
(lp1290
(lp1291
I400
aI0
aa(lp1292
I500
aI0
aa(lp1293
I600
aI0
aa(lp1294
I700
aI1
aa(lp1295
I900
aI1
aa(lp1296
I1100
aI2
aa(lp1297
I1300
aI0
aa(lp1298
I1500
aI1
aa(lp1299
I1800
aI3
aa(lp1300
I2000
aI0
aassg435
(dp1301
g6
(lp1302
(lp1303
I400
aI0
aa(lp1304
I500
aI0
aa(lp1305
I600
aI1
aa(lp1306
I700
aI1
aa(lp1307
I900
aI0
aa(lp1308
I1100
aI1
aa(lp1309
I1300
aI2
aa(lp1310
I1500
aI2
aa(lp1311
I1800
aI4
aa(lp1312
I2000
aI1
aasg367
(lp1313
(lp1314
I400
aI0
aa(lp1315
I500
aI0
aa(lp1316
I600
aI1
aa(lp1317
I700
aI1
aa(lp1318
I900
aI0
aa(lp1319
I1100
aI1
aa(lp1320
I1300
aI2
aa(lp1321
I1500
aI2
aa(lp1322
I1800
aI2
aa(lp1323
I2000
aI0
aasg1211
(lp1324
(lp1325
I400
aI0
aa(lp1326
I500
aI0
aa(lp1327
I600
aI0
aa(lp1328
I700
aI0
aa(lp1329
I900
aI0
aa(lp1330
I1100
aI0
aa(lp1331
I1300
aI0
aa(lp1332
I1500
aI0
aa(lp1333
I1800
aI2
aa(lp1334
I2000
aI1
aassg89
(dp1335
g6
(lp1336
(lp1337
I400
aI0
aa(lp1338
I500
aI0
aa(lp1339
I600
aI0
aa(lp1340
I700
aI0
aa(lp1341
I900
aI0
aa(lp1342
I1100
aI1
aa(lp1343
I1300
aI0
aa(lp1344
I1500
aI1
aa(lp1345
I1800
aI3
aa(lp1346
I2000
aI2
aasg18
(lp1347
(lp1348
I400
aI0
aa(lp1349
I500
aI0
aa(lp1350
I600
aI0
aa(lp1351
I700
aI0
aa(lp1352
I900
aI0
aa(lp1353
I1100
aI0
aa(lp1354
I1300
aI0
aa(lp1355
I1500
aI1
aa(lp1356
I1800
aI3
aa(lp1357
I2000
aI2
aasg42
(lp1358
(lp1359
I400
aI0
aa(lp1360
I500
aI0
aa(lp1361
I600
aI0
aa(lp1362
I700
aI0
aa(lp1363
I900
aI0
aa(lp1364
I1100
aI1
aa(lp1365
I1300
aI0
aa(lp1366
I1500
aI0
aa(lp1367
I1800
aI0
aa(lp1368
I2000
aI0
aassg124
(dp1369
g6
(lp1370
(lp1371
I400
aI0
aa(lp1372
I500
aI0
aa(lp1373
I600
aI0
aa(lp1374
I700
aI1
aa(lp1375
I900
aI3
aa(lp1376
I1100
aI7
aa(lp1377
I1300
aI4
aa(lp1378
I1500
aI7
aa(lp1379
I1800
aI3
aa(lp1380
I2000
aI1
aasg18
(lp1381
(lp1382
I400
aI0
aa(lp1383
I500
aI0
aa(lp1384
I600
aI0
aa(lp1385
I700
aI0
aa(lp1386
I900
aI0
aa(lp1387
I1100
aI1
aa(lp1388
I1300
aI0
aa(lp1389
I1500
aI0
aa(lp1390
I1800
aI0
aa(lp1391
I2000
aI0
aasg30
(lp1392
(lp1393
I400
aI0
aa(lp1394
I500
aI0
aa(lp1395
I600
aI0
aa(lp1396
I700
aI0
aa(lp1397
I900
aI2
aa(lp1398
I1100
aI3
aa(lp1399
I1300
aI2
aa(lp1400
I1500
aI7
aa(lp1401
I1800
aI2
aa(lp1402
I2000
aI0
aasg322
(lp1403
(lp1404
I400
aI0
aa(lp1405
I500
aI0
aa(lp1406
I600
aI0
aa(lp1407
I700
aI1
aa(lp1408
I900
aI0
aa(lp1409
I1100
aI0
aa(lp1410
I1300
aI0
aa(lp1411
I1500
aI0
aa(lp1412
I1800
aI0
aa(lp1413
I2000
aI0
aasg42
(lp1414
(lp1415
I400
aI0
aa(lp1416
I500
aI0
aa(lp1417
I600
aI0
aa(lp1418
I700
aI0
aa(lp1419
I900
aI1
aa(lp1420
I1100
aI3
aa(lp1421
I1300
aI2
aa(lp1422
I1500
aI0
aa(lp1423
I1800
aI1
aa(lp1424
I2000
aI1
aasssV\u53d1\u5c04\u5bfc\u5f39\u65f6\u76ee\u6807\u673a\u6eda\u8f6c\u89d2
p1425
(dp1426
g4
(dp1427
g6
(lp1428
(lp1429
I-45
aI1
aa(lp1430
I-25
aI0
aa(lp1431
I-10
aI0
aa(lp1432
I-5
aI1
aa(lp1433
I0
aI0
aa(lp1434
I5
aI0
aa(lp1435
I10
aI0
aa(lp1436
I25
aI0
aa(lp1437
I45
aI0
aa(lp1438
I60
aI0
aasg30
(lp1439
(lp1440
I-45
aI0
aa(lp1441
I-25
aI0
aa(lp1442
I-10
aI0
aa(lp1443
I-5
aI1
aa(lp1444
I0
aI0
aa(lp1445
I5
aI0
aa(lp1446
I10
aI0
aa(lp1447
I25
aI0
aa(lp1448
I45
aI0
aa(lp1449
I60
aI0
aasg42
(lp1450
(lp1451
I-45
aI1
aa(lp1452
I-25
aI0
aa(lp1453
I-10
aI0
aa(lp1454
I-5
aI0
aa(lp1455
I0
aI0
aa(lp1456
I5
aI0
aa(lp1457
I10
aI0
aa(lp1458
I25
aI0
aa(lp1459
I45
aI0
aa(lp1460
I60
aI0
aassg89
(dp1461
g6
(lp1462
(lp1463
I-45
aI1
aa(lp1464
I-25
aI0
aa(lp1465
I-10
aI0
aa(lp1466
I-5
aI0
aa(lp1467
I0
aI0
aa(lp1468
I5
aI0
aa(lp1469
I10
aI0
aa(lp1470
I25
aI0
aa(lp1471
I45
aI0
aa(lp1472
I60
aI0
aasg42
(lp1473
(lp1474
I-45
aI1
aa(lp1475
I-25
aI0
aa(lp1476
I-10
aI0
aa(lp1477
I-5
aI0
aa(lp1478
I0
aI0
aa(lp1479
I5
aI0
aa(lp1480
I10
aI0
aa(lp1481
I25
aI0
aa(lp1482
I45
aI0
aa(lp1483
I60
aI0
aassg124
(dp1484
g6
(lp1485
(lp1486
I-45
aI0
aa(lp1487
I-25
aI0
aa(lp1488
I-10
aI0
aa(lp1489
I-5
aI1
aa(lp1490
I0
aI0
aa(lp1491
I5
aI0
aa(lp1492
I10
aI0
aa(lp1493
I25
aI0
aa(lp1494
I45
aI0
aa(lp1495
I60
aI0
aasg30
(lp1496
(lp1497
I-45
aI0
aa(lp1498
I-25
aI0
aa(lp1499
I-10
aI0
aa(lp1500
I-5
aI1
aa(lp1501
I0
aI0
aa(lp1502
I5
aI0
aa(lp1503
I10
aI0
aa(lp1504
I25
aI0
aa(lp1505
I45
aI0
aa(lp1506
I60
aI0
aasssV\u53d1\u5c04\u5bfc\u5f39\u65f6\u8f7d\u673a\u4e0e\u76ee\u6807\u673a\u8ddd\u79bb\u5173\u7cfb\uff08\u5343\u7c73\uff09
p1507
(dp1508
g4
(dp1509
g18
(lp1510
(lp1511
I1
aI0
aa(lp1512
I3
aI0
aa(lp1513
I5
aI2
aa(lp1514
I10
aI1
aa(lp1515
I15
aI1
aa(lp1516
I20
aI2
aa(lp1517
I30
aI8
aa(lp1518
I50
aI0
aa(lp1519
I70
aI0
aa(lp1520
I100
aI0
aasg322
(lp1521
(lp1522
I1
aI0
aa(lp1523
I3
aI0
aa(lp1524
I5
aI0
aa(lp1525
I10
aI1
aa(lp1526
I15
aI0
aa(lp1527
I20
aI0
aa(lp1528
I30
aI0
aa(lp1529
I50
aI0
aa(lp1530
I70
aI0
aa(lp1531
I100
aI0
aasg6
(lp1532
(lp1533
I1
aI0
aa(lp1534
I3
aI0
aa(lp1535
I5
aI2
aa(lp1536
I10
aI7
aa(lp1537
I15
aI4
aa(lp1538
I20
aI8
aa(lp1539
I30
aI15
aa(lp1540
I50
aI2
aa(lp1541
I70
aI0
aa(lp1542
I100
aI0
aasg30
(lp1543
(lp1544
I1
aI0
aa(lp1545
I3
aI0
aa(lp1546
I5
aI0
aa(lp1547
I10
aI2
aa(lp1548
I15
aI0
aa(lp1549
I20
aI2
aa(lp1550
I30
aI4
aa(lp1551
I50
aI1
aa(lp1552
I70
aI0
aa(lp1553
I100
aI0
aasg42
(lp1554
(lp1555
I1
aI0
aa(lp1556
I3
aI0
aa(lp1557
I5
aI0
aa(lp1558
I10
aI3
aa(lp1559
I15
aI3
aa(lp1560
I20
aI4
aa(lp1561
I30
aI3
aa(lp1562
I50
aI0
aa(lp1563
I70
aI0
aa(lp1564
I100
aI0
aasg367
(lp1565
(lp1566
I1
aI0
aa(lp1567
I3
aI0
aa(lp1568
I5
aI0
aa(lp1569
I10
aI0
aa(lp1570
I15
aI0
aa(lp1571
I20
aI0
aa(lp1572
I30
aI0
aa(lp1573
I50
aI1
aa(lp1574
I70
aI0
aa(lp1575
I100
aI0
aassg54
(dp1576
g6
(lp1577
(lp1578
I1
aI0
aa(lp1579
I3
aI0
aa(lp1580
I5
aI1
aa(lp1581
I10
aI4
aa(lp1582
I15
aI2
aa(lp1583
I20
aI4
aa(lp1584
I30
aI6
aa(lp1585
I50
aI0
aa(lp1586
I70
aI0
aa(lp1587
I100
aI0
aasg18
(lp1588
(lp1589
I1
aI0
aa(lp1590
I3
aI0
aa(lp1591
I5
aI1
aa(lp1592
I10
aI0
aa(lp1593
I15
aI0
aa(lp1594
I20
aI1
aa(lp1595
I30
aI5
aa(lp1596
I50
aI0
aa(lp1597
I70
aI0
aa(lp1598
I100
aI0
aasg30
(lp1599
(lp1600
I1
aI0
aa(lp1601
I3
aI0
aa(lp1602
I5
aI0
aa(lp1603
I10
aI1
aa(lp1604
I15
aI0
aa(lp1605
I20
aI2
aa(lp1606
I30
aI0
aa(lp1607
I50
aI0
aa(lp1608
I70
aI0
aa(lp1609
I100
aI0
aasg322
(lp1610
(lp1611
I1
aI0
aa(lp1612
I3
aI0
aa(lp1613
I5
aI0
aa(lp1614
I10
aI1
aa(lp1615
I15
aI0
aa(lp1616
I20
aI0
aa(lp1617
I30
aI0
aa(lp1618
I50
aI0
aa(lp1619
I70
aI0
aa(lp1620
I100
aI0
aasg42
(lp1621
(lp1622
I1
aI0
aa(lp1623
I3
aI0
aa(lp1624
I5
aI0
aa(lp1625
I10
aI2
aa(lp1626
I15
aI2
aa(lp1627
I20
aI1
aa(lp1628
I30
aI1
aa(lp1629
I50
aI0
aa(lp1630
I70
aI0
aa(lp1631
I100
aI0
aassg435
(dp1632
g6
(lp1633
(lp1634
I1
aI0
aa(lp1635
I3
aI0
aa(lp1636
I5
aI0
aa(lp1637
I10
aI0
aa(lp1638
I15
aI0
aa(lp1639
I20
aI0
aa(lp1640
I30
aI0
aa(lp1641
I50
aI1
aa(lp1642
I70
aI0
aa(lp1643
I100
aI0
aasg367
(lp1644
(lp1645
I1
aI0
aa(lp1646
I3
aI0
aa(lp1647
I5
aI0
aa(lp1648
I10
aI0
aa(lp1649
I15
aI0
aa(lp1650
I20
aI0
aa(lp1651
I30
aI0
aa(lp1652
I50
aI1
aa(lp1653
I70
aI0
aa(lp1654
I100
aI0
aassg89
(dp1655
g6
(lp1656
(lp1657
I1
aI0
aa(lp1658
I3
aI0
aa(lp1659
I5
aI1
aa(lp1660
I10
aI2
aa(lp1661
I15
aI1
aa(lp1662
I20
aI1
aa(lp1663
I30
aI2
aa(lp1664
I50
aI0
aa(lp1665
I70
aI0
aa(lp1666
I100
aI0
aasg18
(lp1667
(lp1668
I1
aI0
aa(lp1669
I3
aI0
aa(lp1670
I5
aI1
aa(lp1671
I10
aI1
aa(lp1672
I15
aI1
aa(lp1673
I20
aI1
aa(lp1674
I30
aI2
aa(lp1675
I50
aI0
aa(lp1676
I70
aI0
aa(lp1677
I100
aI0
aasg42
(lp1678
(lp1679
I1
aI0
aa(lp1680
I3
aI0
aa(lp1681
I5
aI0
aa(lp1682
I10
aI1
aa(lp1683
I15
aI0
aa(lp1684
I20
aI0
aa(lp1685
I30
aI0
aa(lp1686
I50
aI0
aa(lp1687
I70
aI0
aa(lp1688
I100
aI0
aassg124
(dp1689
g6
(lp1690
(lp1691
I1
aI0
aa(lp1692
I3
aI0
aa(lp1693
I5
aI0
aa(lp1694
I10
aI1
aa(lp1695
I15
aI1
aa(lp1696
I20
aI3
aa(lp1697
I30
aI7
aa(lp1698
I50
aI1
aa(lp1699
I70
aI0
aa(lp1700
I100
aI0
aasg18
(lp1701
(lp1702
I1
aI0
aa(lp1703
I3
aI0
aa(lp1704
I5
aI0
aa(lp1705
I10
aI0
aa(lp1706
I15
aI0
aa(lp1707
I20
aI0
aa(lp1708
I30
aI1
aa(lp1709
I50
aI0
aa(lp1710
I70
aI0
aa(lp1711
I100
aI0
aasg30
(lp1712
(lp1713
I1
aI0
aa(lp1714
I3
aI0
aa(lp1715
I5
aI0
aa(lp1716
I10
aI1
aa(lp1717
I15
aI0
aa(lp1718
I20
aI0
aa(lp1719
I30
aI4
aa(lp1720
I50
aI1
aa(lp1721
I70
aI0
aa(lp1722
I100
aI0
aasg42
(lp1723
(lp1724
I1
aI0
aa(lp1725
I3
aI0
aa(lp1726
I5
aI0
aa(lp1727
I10
aI0
aa(lp1728
I15
aI1
aa(lp1729
I20
aI3
aa(lp1730
I30
aI2
aa(lp1731
I50
aI0
aa(lp1732
I70
aI0
aa(lp1733
I100
aI0
aasssV\u53d1\u5c04\u5bfc\u5f39\u65f6\u8f7d\u673a\u6eda\u8f6c\u89d2
p1734
(dp1735
g4
(dp1736
g6
(lp1737
(lp1738
I-45
aI5
aa(lp1739
I-25
aI4
aa(lp1740
I-10
aI2
aa(lp1741
I-5
aI3
aa(lp1742
I0
aI0
aa(lp1743
I5
aI0
aa(lp1744
I10
aI0
aa(lp1745
I25
aI3
aa(lp1746
I45
aI0
aa(lp1747
I60
aI6
aasg18
(lp1748
(lp1749
I-45
aI3
aa(lp1750
I-25
aI4
aa(lp1751
I-10
aI1
aa(lp1752
I-5
aI2
aa(lp1753
I0
aI0
aa(lp1754
I5
aI0
aa(lp1755
I10
aI0
aa(lp1756
I25
aI2
aa(lp1757
I45
aI0
aa(lp1758
I60
aI4
aasg322
(lp1759
(lp1760
I-45
aI1
aa(lp1761
I-25
aI0
aa(lp1762
I-10
aI0
aa(lp1763
I-5
aI0
aa(lp1764
I0
aI0
aa(lp1765
I5
aI0
aa(lp1766
I10
aI0
aa(lp1767
I25
aI0
aa(lp1768
I45
aI0
aa(lp1769
I60
aI0
aasS'R-27EM'
p1770
(lp1771
(lp1772
I-45
aI0
aa(lp1773
I-25
aI0
aa(lp1774
I-10
aI1
aa(lp1775
I-5
aI0
aa(lp1776
I0
aI0
aa(lp1777
I5
aI0
aa(lp1778
I10
aI0
aa(lp1779
I25
aI1
aa(lp1780
I45
aI0
aa(lp1781
I60
aI1
aasg42
(lp1782
(lp1783
I-45
aI1
aa(lp1784
I-25
aI0
aa(lp1785
I-10
aI0
aa(lp1786
I-5
aI1
aa(lp1787
I0
aI0
aa(lp1788
I5
aI0
aa(lp1789
I10
aI0
aa(lp1790
I25
aI0
aa(lp1791
I45
aI0
aa(lp1792
I60
aI1
aassg89
(dp1793
g6
(lp1794
(lp1795
I-45
aI5
aa(lp1796
I-25
aI4
aa(lp1797
I-10
aI2
aa(lp1798
I-5
aI3
aa(lp1799
I0
aI0
aa(lp1800
I5
aI0
aa(lp1801
I10
aI0
aa(lp1802
I25
aI3
aa(lp1803
I45
aI0
aa(lp1804
I60
aI6
aasg18
(lp1805
(lp1806
I-45
aI3
aa(lp1807
I-25
aI4
aa(lp1808
I-10
aI1
aa(lp1809
I-5
aI2
aa(lp1810
I0
aI0
aa(lp1811
I5
aI0
aa(lp1812
I10
aI0
aa(lp1813
I25
aI2
aa(lp1814
I45
aI0
aa(lp1815
I60
aI4
aasg322
(lp1816
(lp1817
I-45
aI1
aa(lp1818
I-25
aI0
aa(lp1819
I-10
aI0
aa(lp1820
I-5
aI0
aa(lp1821
I0
aI0
aa(lp1822
I5
aI0
aa(lp1823
I10
aI0
aa(lp1824
I25
aI0
aa(lp1825
I45
aI0
aa(lp1826
I60
aI0
aasg1770
(lp1827
(lp1828
I-45
aI0
aa(lp1829
I-25
aI0
aa(lp1830
I-10
aI1
aa(lp1831
I-5
aI0
aa(lp1832
I0
aI0
aa(lp1833
I5
aI0
aa(lp1834
I10
aI0
aa(lp1835
I25
aI1
aa(lp1836
I45
aI0
aa(lp1837
I60
aI1
aasg42
(lp1838
(lp1839
I-45
aI1
aa(lp1840
I-25
aI0
aa(lp1841
I-10
aI0
aa(lp1842
I-5
aI1
aa(lp1843
I0
aI0
aa(lp1844
I5
aI0
aa(lp1845
I10
aI0
aa(lp1846
I25
aI0
aa(lp1847
I45
aI0
aa(lp1848
I60
aI1
aasssV\u5bfc\u5f39\u547d\u4e2d\u65f6\u76ee\u6807\u673a\u4e0e\u8f7d\u673a\u9ad8\u5ea6\u5173\u7cfb\uff08\u7c73\uff09
p1849
(dp1850
g4
(dp1851
g6
(lp1852
(lp1853
I-4000
aI0
aa(lp1854
I-3000
aI0
aa(lp1855
I-2000
aI0
aa(lp1856
I-1000
aI2
aa(lp1857
I0
aI4
aa(lp1858
I1000
aI4
aa(lp1859
I2000
aI4
aa(lp1860
I3000
aI1
aa(lp1861
I4000
aI0
aa(lp1862
I5000
aI1
aasg18
(lp1863
(lp1864
I-4000
aI0
aa(lp1865
I-3000
aI0
aa(lp1866
I-2000
aI0
aa(lp1867
I-1000
aI0
aa(lp1868
I0
aI2
aa(lp1869
I1000
aI1
aa(lp1870
I2000
aI1
aa(lp1871
I3000
aI1
aa(lp1872
I4000
aI0
aa(lp1873
I5000
aI0
aasg30
(lp1874
(lp1875
I-4000
aI0
aa(lp1876
I-3000
aI0
aa(lp1877
I-2000
aI0
aa(lp1878
I-1000
aI0
aa(lp1879
I0
aI0
aa(lp1880
I1000
aI0
aa(lp1881
I2000
aI2
aa(lp1882
I3000
aI0
aa(lp1883
I4000
aI0
aa(lp1884
I5000
aI1
aasg42
(lp1885
(lp1886
I-4000
aI0
aa(lp1887
I-3000
aI0
aa(lp1888
I-2000
aI0
aa(lp1889
I-1000
aI2
aa(lp1890
I0
aI2
aa(lp1891
I1000
aI3
aa(lp1892
I2000
aI1
aa(lp1893
I3000
aI0
aa(lp1894
I4000
aI0
aa(lp1895
I5000
aI0
aassg54
(dp1896
g6
(lp1897
(lp1898
I-4000
aI0
aa(lp1899
I-3000
aI0
aa(lp1900
I-2000
aI0
aa(lp1901
I-1000
aI1
aa(lp1902
I0
aI1
aa(lp1903
I1000
aI2
aa(lp1904
I2000
aI0
aa(lp1905
I3000
aI1
aa(lp1906
I4000
aI0
aa(lp1907
I5000
aI0
aasg18
(lp1908
(lp1909
I-4000
aI0
aa(lp1910
I-3000
aI0
aa(lp1911
I-2000
aI0
aa(lp1912
I-1000
aI0
aa(lp1913
I0
aI1
aa(lp1914
I1000
aI1
aa(lp1915
I2000
aI0
aa(lp1916
I3000
aI1
aa(lp1917
I4000
aI0
aa(lp1918
I5000
aI0
aasg42
(lp1919
(lp1920
I-4000
aI0
aa(lp1921
I-3000
aI0
aa(lp1922
I-2000
aI0
aa(lp1923
I-1000
aI1
aa(lp1924
I0
aI0
aa(lp1925
I1000
aI1
aa(lp1926
I2000
aI0
aa(lp1927
I3000
aI0
aa(lp1928
I4000
aI0
aa(lp1929
I5000
aI0
aassg89
(dp1930
g6
(lp1931
(lp1932
I-4000
aI0
aa(lp1933
I-3000
aI0
aa(lp1934
I-2000
aI0
aa(lp1935
I-1000
aI0
aa(lp1936
I0
aI2
aa(lp1937
I1000
aI0
aa(lp1938
I2000
aI1
aa(lp1939
I3000
aI0
aa(lp1940
I4000
aI0
aa(lp1941
I5000
aI0
aasg18
(lp1942
(lp1943
I-4000
aI0
aa(lp1944
I-3000
aI0
aa(lp1945
I-2000
aI0
aa(lp1946
I-1000
aI0
aa(lp1947
I0
aI1
aa(lp1948
I1000
aI0
aa(lp1949
I2000
aI1
aa(lp1950
I3000
aI0
aa(lp1951
I4000
aI0
aa(lp1952
I5000
aI0
aasg42
(lp1953
(lp1954
I-4000
aI0
aa(lp1955
I-3000
aI0
aa(lp1956
I-2000
aI0
aa(lp1957
I-1000
aI0
aa(lp1958
I0
aI1
aa(lp1959
I1000
aI0
aa(lp1960
I2000
aI0
aa(lp1961
I3000
aI0
aa(lp1962
I4000
aI0
aa(lp1963
I5000
aI0
aassg124
(dp1964
g6
(lp1965
(lp1966
I-4000
aI0
aa(lp1967
I-3000
aI0
aa(lp1968
I-2000
aI0
aa(lp1969
I-1000
aI1
aa(lp1970
I0
aI1
aa(lp1971
I1000
aI2
aa(lp1972
I2000
aI3
aa(lp1973
I3000
aI0
aa(lp1974
I4000
aI0
aa(lp1975
I5000
aI1
aasg30
(lp1976
(lp1977
I-4000
aI0
aa(lp1978
I-3000
aI0
aa(lp1979
I-2000
aI0
aa(lp1980
I-1000
aI0
aa(lp1981
I0
aI0
aa(lp1982
I1000
aI0
aa(lp1983
I2000
aI2
aa(lp1984
I3000
aI0
aa(lp1985
I4000
aI0
aa(lp1986
I5000
aI1
aasg42
(lp1987
(lp1988
I-4000
aI0
aa(lp1989
I-3000
aI0
aa(lp1990
I-2000
aI0
aa(lp1991
I-1000
aI1
aa(lp1992
I0
aI1
aa(lp1993
I1000
aI2
aa(lp1994
I2000
aI1
aa(lp1995
I3000
aI0
aa(lp1996
I4000
aI0
aa(lp1997
I5000
aI0
aasssV\u53d1\u5c04\u5bfc\u5f39\u65f6\u76ee\u6807\u673a\u653b\u89d2
p1998
(dp1999
g4
(dp2000
g18
(lp2001
(lp2002
I-45
aI0
aa(lp2003
I-25
aI1
aa(lp2004
I-10
aI0
aa(lp2005
I-5
aI1
aa(lp2006
I0
aI4
aa(lp2007
I5
aI2
aa(lp2008
I10
aI1
aa(lp2009
I25
aI0
aa(lp2010
I45
aI0
aa(lp2011
I60
aI0
aasg322
(lp2012
(lp2013
I-45
aI0
aa(lp2014
I-25
aI0
aa(lp2015
I-10
aI0
aa(lp2016
I-5
aI0
aa(lp2017
I0
aI0
aa(lp2018
I5
aI1
aa(lp2019
I10
aI0
aa(lp2020
I25
aI0
aa(lp2021
I45
aI0
aa(lp2022
I60
aI0
aasg6
(lp2023
(lp2024
I-45
aI0
aa(lp2025
I-25
aI2
aa(lp2026
I-10
aI2
aa(lp2027
I-5
aI2
aa(lp2028
I0
aI13
aa(lp2029
I5
aI5
aa(lp2030
I10
aI1
aa(lp2031
I25
aI1
aa(lp2032
I45
aI0
aa(lp2033
I60
aI0
aasg30
(lp2034
(lp2035
I-45
aI0
aa(lp2036
I-25
aI1
aa(lp2037
I-10
aI0
aa(lp2038
I-5
aI1
aa(lp2039
I0
aI4
aa(lp2040
I5
aI2
aa(lp2041
I10
aI0
aa(lp2042
I25
aI0
aa(lp2043
I45
aI0
aa(lp2044
I60
aI0
aasg42
(lp2045
(lp2046
I-45
aI0
aa(lp2047
I-25
aI0
aa(lp2048
I-10
aI2
aa(lp2049
I-5
aI0
aa(lp2050
I0
aI4
aa(lp2051
I5
aI0
aa(lp2052
I10
aI0
aa(lp2053
I25
aI1
aa(lp2054
I45
aI0
aa(lp2055
I60
aI0
aasg367
(lp2056
(lp2057
I-45
aI0
aa(lp2058
I-25
aI0
aa(lp2059
I-10
aI0
aa(lp2060
I-5
aI0
aa(lp2061
I0
aI1
aa(lp2062
I5
aI0
aa(lp2063
I10
aI0
aa(lp2064
I25
aI0
aa(lp2065
I45
aI0
aa(lp2066
I60
aI0
aassg54
(dp2067
g6
(lp2068
(lp2069
I-45
aI0
aa(lp2070
I-25
aI1
aa(lp2071
I-10
aI2
aa(lp2072
I-5
aI1
aa(lp2073
I0
aI4
aa(lp2074
I5
aI4
aa(lp2075
I10
aI0
aa(lp2076
I25
aI0
aa(lp2077
I45
aI0
aa(lp2078
I60
aI0
aasg18
(lp2079
(lp2080
I-45
aI0
aa(lp2081
I-25
aI1
aa(lp2082
I-10
aI0
aa(lp2083
I-5
aI1
aa(lp2084
I0
aI1
aa(lp2085
I5
aI1
aa(lp2086
I10
aI0
aa(lp2087
I25
aI0
aa(lp2088
I45
aI0
aa(lp2089
I60
aI0
aasg30
(lp2090
(lp2091
I-45
aI0
aa(lp2092
I-25
aI0
aa(lp2093
I-10
aI0
aa(lp2094
I-5
aI0
aa(lp2095
I0
aI1
aa(lp2096
I5
aI2
aa(lp2097
I10
aI0
aa(lp2098
I25
aI0
aa(lp2099
I45
aI0
aa(lp2100
I60
aI0
aasg322
(lp2101
(lp2102
I-45
aI0
aa(lp2103
I-25
aI0
aa(lp2104
I-10
aI0
aa(lp2105
I-5
aI0
aa(lp2106
I0
aI0
aa(lp2107
I5
aI1
aa(lp2108
I10
aI0
aa(lp2109
I25
aI0
aa(lp2110
I45
aI0
aa(lp2111
I60
aI0
aasg42
(lp2112
(lp2113
I-45
aI0
aa(lp2114
I-25
aI0
aa(lp2115
I-10
aI2
aa(lp2116
I-5
aI0
aa(lp2117
I0
aI2
aa(lp2118
I5
aI0
aa(lp2119
I10
aI0
aa(lp2120
I25
aI0
aa(lp2121
I45
aI0
aa(lp2122
I60
aI0
aassg435
(dp2123
g6
(lp2124
(lp2125
I-45
aI0
aa(lp2126
I-25
aI0
aa(lp2127
I-10
aI0
aa(lp2128
I-5
aI0
aa(lp2129
I0
aI1
aa(lp2130
I5
aI0
aa(lp2131
I10
aI0
aa(lp2132
I25
aI0
aa(lp2133
I45
aI0
aa(lp2134
I60
aI0
aasg367
(lp2135
(lp2136
I-45
aI0
aa(lp2137
I-25
aI0
aa(lp2138
I-10
aI0
aa(lp2139
I-5
aI0
aa(lp2140
I0
aI1
aa(lp2141
I5
aI0
aa(lp2142
I10
aI0
aa(lp2143
I25
aI0
aa(lp2144
I45
aI0
aa(lp2145
I60
aI0
aassg89
(dp2146
g6
(lp2147
(lp2148
I-45
aI0
aa(lp2149
I-25
aI0
aa(lp2150
I-10
aI0
aa(lp2151
I-5
aI0
aa(lp2152
I0
aI2
aa(lp2153
I5
aI1
aa(lp2154
I10
aI1
aa(lp2155
I25
aI0
aa(lp2156
I45
aI0
aa(lp2157
I60
aI0
aasg18
(lp2158
(lp2159
I-45
aI0
aa(lp2160
I-25
aI0
aa(lp2161
I-10
aI0
aa(lp2162
I-5
aI0
aa(lp2163
I0
aI2
aa(lp2164
I5
aI1
aa(lp2165
I10
aI1
aa(lp2166
I25
aI0
aa(lp2167
I45
aI0
aa(lp2168
I60
aI0
aassg124
(dp2169
g6
(lp2170
(lp2171
I-45
aI0
aa(lp2172
I-25
aI1
aa(lp2173
I-10
aI0
aa(lp2174
I-5
aI1
aa(lp2175
I0
aI6
aa(lp2176
I5
aI0
aa(lp2177
I10
aI0
aa(lp2178
I25
aI1
aa(lp2179
I45
aI0
aa(lp2180
I60
aI0
aasg18
(lp2181
(lp2182
I-45
aI0
aa(lp2183
I-25
aI0
aa(lp2184
I-10
aI0
aa(lp2185
I-5
aI0
aa(lp2186
I0
aI1
aa(lp2187
I5
aI0
aa(lp2188
I10
aI0
aa(lp2189
I25
aI0
aa(lp2190
I45
aI0
aa(lp2191
I60
aI0
aasg30
(lp2192
(lp2193
I-45
aI0
aa(lp2194
I-25
aI1
aa(lp2195
I-10
aI0
aa(lp2196
I-5
aI1
aa(lp2197
I0
aI3
aa(lp2198
I5
aI0
aa(lp2199
I10
aI0
aa(lp2200
I25
aI0
aa(lp2201
I45
aI0
aa(lp2202
I60
aI0
aasg42
(lp2203
(lp2204
I-45
aI0
aa(lp2205
I-25
aI0
aa(lp2206
I-10
aI0
aa(lp2207
I-5
aI0
aa(lp2208
I0
aI2
aa(lp2209
I5
aI0
aa(lp2210
I10
aI0
aa(lp2211
I25
aI1
aa(lp2212
I45
aI0
aa(lp2213
I60
aI0
aasssV\u53d1\u5c04\u5bfc\u5f39\u65f6\u8f7d\u673a\u9a6c\u8d6b\u6570
p2214
(dp2215
g4
(dp2216
g18
(lp2217
(lp2218
F0.29999999999999999
aI0
aa(lp2219
F0.40000000000000002
aI0
aa(lp2220
F0.5
aI0
aa(lp2221
F0.59999999999999998
aI1
aa(lp2222
F0.80000000000000004
aI3
aa(lp2223
F1
aI3
aa(lp2224
F1.2
aI6
aa(lp2225
F1.5
aI4
aa(lp2226
F1.8
aI2
aa(lp2227
F2
aI0
aasg322
(lp2228
(lp2229
F0.29999999999999999
aI0
aa(lp2230
F0.40000000000000002
aI0
aa(lp2231
F0.5
aI0
aa(lp2232
F0.59999999999999998
aI1
aa(lp2233
F0.80000000000000004
aI2
aa(lp2234
F1
aI0
aa(lp2235
F1.2
aI0
aa(lp2236
F1.5
aI0
aa(lp2237
F1.8
aI0
aa(lp2238
F2
aI0
aasg6
(lp2239
(lp2240
F0.29999999999999999
aI0
aa(lp2241
F0.40000000000000002
aI0
aa(lp2242
F0.5
aI1
aa(lp2243
F0.59999999999999998
aI5
aa(lp2244
F0.80000000000000004
aI11
aa(lp2245
F1
aI18
aa(lp2246
F1.2
aI16
aa(lp2247
F1.5
aI16
aa(lp2248
F1.8
aI4
aa(lp2249
F2
aI0
aasg30
(lp2250
(lp2251
F0.29999999999999999
aI0
aa(lp2252
F0.40000000000000002
aI0
aa(lp2253
F0.5
aI0
aa(lp2254
F0.59999999999999998
aI0
aa(lp2255
F0.80000000000000004
aI3
aa(lp2256
F1
aI6
aa(lp2257
F1.2
aI7
aa(lp2258
F1.5
aI3
aa(lp2259
F1.8
aI1
aa(lp2260
F2
aI0
aasg1211
(lp2261
(lp2262
F0.29999999999999999
aI0
aa(lp2263
F0.40000000000000002
aI0
aa(lp2264
F0.5
aI0
aa(lp2265
F0.59999999999999998
aI0
aa(lp2266
F0.80000000000000004
aI0
aa(lp2267
F1
aI0
aa(lp2268
F1.2
aI0
aa(lp2269
F1.5
aI2
aa(lp2270
F1.8
aI1
aa(lp2271
F2
aI0
aasg42
(lp2272
(lp2273
F0.29999999999999999
aI0
aa(lp2274
F0.40000000000000002
aI0
aa(lp2275
F0.5
aI0
aa(lp2276
F0.59999999999999998
aI2
aa(lp2277
F0.80000000000000004
aI3
aa(lp2278
F1
aI6
aa(lp2279
F1.2
aI1
aa(lp2280
F1.5
aI5
aa(lp2281
F1.8
aI0
aa(lp2282
F2
aI0
aasg367
(lp2283
(lp2284
F0.29999999999999999
aI0
aa(lp2285
F0.40000000000000002
aI0
aa(lp2286
F0.5
aI1
aa(lp2287
F0.59999999999999998
aI1
aa(lp2288
F0.80000000000000004
aI0
aa(lp2289
F1
aI3
aa(lp2290
F1.2
aI2
aa(lp2291
F1.5
aI2
aa(lp2292
F1.8
aI0
aa(lp2293
F2
aI0
aassg54
(dp2294
g6
(lp2295
(lp2296
F0.29999999999999999
aI0
aa(lp2297
F0.40000000000000002
aI0
aa(lp2298
F0.5
aI0
aa(lp2299
F0.59999999999999998
aI3
aa(lp2300
F0.80000000000000004
aI6
aa(lp2301
F1
aI5
aa(lp2302
F1.2
aI6
aa(lp2303
F1.5
aI5
aa(lp2304
F1.8
aI1
aa(lp2305
F2
aI0
aasg18
(lp2306
(lp2307
F0.29999999999999999
aI0
aa(lp2308
F0.40000000000000002
aI0
aa(lp2309
F0.5
aI0
aa(lp2310
F0.59999999999999998
aI1
aa(lp2311
F0.80000000000000004
aI3
aa(lp2312
F1
aI2
aa(lp2313
F1.2
aI5
aa(lp2314
F1.5
aI1
aa(lp2315
F1.8
aI0
aa(lp2316
F2
aI0
aasg30
(lp2317
(lp2318
F0.29999999999999999
aI0
aa(lp2319
F0.40000000000000002
aI0
aa(lp2320
F0.5
aI0
aa(lp2321
F0.59999999999999998
aI0
aa(lp2322
F0.80000000000000004
aI0
aa(lp2323
F1
aI2
aa(lp2324
F1.2
aI0
aa(lp2325
F1.5
aI1
aa(lp2326
F1.8
aI1
aa(lp2327
F2
aI0
aasg322
(lp2328
(lp2329
F0.29999999999999999
aI0
aa(lp2330
F0.40000000000000002
aI0
aa(lp2331
F0.5
aI0
aa(lp2332
F0.59999999999999998
aI0
aa(lp2333
F0.80000000000000004
aI2
aa(lp2334
F1
aI0
aa(lp2335
F1.2
aI0
aa(lp2336
F1.5
aI0
aa(lp2337
F1.8
aI0
aa(lp2338
F2
aI0
aasg42
(lp2339
(lp2340
F0.29999999999999999
aI0
aa(lp2341
F0.40000000000000002
aI0
aa(lp2342
F0.5
aI0
aa(lp2343
F0.59999999999999998
aI2
aa(lp2344
F0.80000000000000004
aI1
aa(lp2345
F1
aI1
aa(lp2346
F1.2
aI1
aa(lp2347
F1.5
aI3
aa(lp2348
F1.8
aI0
aa(lp2349
F2
aI0
aassg435
(dp2350
g6
(lp2351
(lp2352
F0.29999999999999999
aI0
aa(lp2353
F0.40000000000000002
aI0
aa(lp2354
F0.5
aI1
aa(lp2355
F0.59999999999999998
aI1
aa(lp2356
F0.80000000000000004
aI0
aa(lp2357
F1
aI3
aa(lp2358
F1.2
aI2
aa(lp2359
F1.5
aI4
aa(lp2360
F1.8
aI1
aa(lp2361
F2
aI0
aasg367
(lp2362
(lp2363
F0.29999999999999999
aI0
aa(lp2364
F0.40000000000000002
aI0
aa(lp2365
F0.5
aI1
aa(lp2366
F0.59999999999999998
aI1
aa(lp2367
F0.80000000000000004
aI0
aa(lp2368
F1
aI3
aa(lp2369
F1.2
aI2
aa(lp2370
F1.5
aI2
aa(lp2371
F1.8
aI0
aa(lp2372
F2
aI0
aasg1211
(lp2373
(lp2374
F0.29999999999999999
aI0
aa(lp2375
F0.40000000000000002
aI0
aa(lp2376
F0.5
aI0
aa(lp2377
F0.59999999999999998
aI0
aa(lp2378
F0.80000000000000004
aI0
aa(lp2379
F1
aI0
aa(lp2380
F1.2
aI0
aa(lp2381
F1.5
aI2
aa(lp2382
F1.8
aI1
aa(lp2383
F2
aI0
aassg89
(dp2384
g6
(lp2385
(lp2386
F0.29999999999999999
aI0
aa(lp2387
F0.40000000000000002
aI0
aa(lp2388
F0.5
aI0
aa(lp2389
F0.59999999999999998
aI0
aa(lp2390
F0.80000000000000004
aI0
aa(lp2391
F1
aI1
aa(lp2392
F1.2
aI1
aa(lp2393
F1.5
aI3
aa(lp2394
F1.8
aI2
aa(lp2395
F2
aI0
aasg18
(lp2396
(lp2397
F0.29999999999999999
aI0
aa(lp2398
F0.40000000000000002
aI0
aa(lp2399
F0.5
aI0
aa(lp2400
F0.59999999999999998
aI0
aa(lp2401
F0.80000000000000004
aI0
aa(lp2402
F1
aI0
aa(lp2403
F1.2
aI1
aa(lp2404
F1.5
aI3
aa(lp2405
F1.8
aI2
aa(lp2406
F2
aI0
aasg42
(lp2407
(lp2408
F0.29999999999999999
aI0
aa(lp2409
F0.40000000000000002
aI0
aa(lp2410
F0.5
aI0
aa(lp2411
F0.59999999999999998
aI0
aa(lp2412
F0.80000000000000004
aI0
aa(lp2413
F1
aI1
aa(lp2414
F1.2
aI0
aa(lp2415
F1.5
aI0
aa(lp2416
F1.8
aI0
aa(lp2417
F2
aI0
aassg124
(dp2418
g6
(lp2419
(lp2420
F0.29999999999999999
aI0
aa(lp2421
F0.40000000000000002
aI0
aa(lp2422
F0.5
aI0
aa(lp2423
F0.59999999999999998
aI1
aa(lp2424
F0.80000000000000004
aI5
aa(lp2425
F1
aI9
aa(lp2426
F1.2
aI7
aa(lp2427
F1.5
aI4
aa(lp2428
F1.8
aI0
aa(lp2429
F2
aI0
aasg18
(lp2430
(lp2431
F0.29999999999999999
aI0
aa(lp2432
F0.40000000000000002
aI0
aa(lp2433
F0.5
aI0
aa(lp2434
F0.59999999999999998
aI0
aa(lp2435
F0.80000000000000004
aI0
aa(lp2436
F1
aI1
aa(lp2437
F1.2
aI0
aa(lp2438
F1.5
aI0
aa(lp2439
F1.8
aI0
aa(lp2440
F2
aI0
aasg30
(lp2441
(lp2442
F0.29999999999999999
aI0
aa(lp2443
F0.40000000000000002
aI0
aa(lp2444
F0.5
aI0
aa(lp2445
F0.59999999999999998
aI0
aa(lp2446
F0.80000000000000004
aI3
aa(lp2447
F1
aI4
aa(lp2448
F1.2
aI7
aa(lp2449
F1.5
aI2
aa(lp2450
F1.8
aI0
aa(lp2451
F2
aI0
aasg322
(lp2452
(lp2453
F0.29999999999999999
aI0
aa(lp2454
F0.40000000000000002
aI0
aa(lp2455
F0.5
aI0
aa(lp2456
F0.59999999999999998
aI1
aa(lp2457
F0.80000000000000004
aI0
aa(lp2458
F1
aI0
aa(lp2459
F1.2
aI0
aa(lp2460
F1.5
aI0
aa(lp2461
F1.8
aI0
aa(lp2462
F2
aI0
aasg42
(lp2463
(lp2464
F0.29999999999999999
aI0
aa(lp2465
F0.40000000000000002
aI0
aa(lp2466
F0.5
aI0
aa(lp2467
F0.59999999999999998
aI0
aa(lp2468
F0.80000000000000004
aI2
aa(lp2469
F1
aI4
aa(lp2470
F1.2
aI0
aa(lp2471
F1.5
aI2
aa(lp2472
F1.8
aI0
aa(lp2473
F2
aI0
aasssV\u53d1\u5c04\u5bfc\u5f39\u65f6\u76ee\u6807\u673a\u771f\u7a7a\u901f\u5ea6\uff08\u5343\u7c73\u6bcf\u5c0f\u65f6\uff09
p2474
(dp2475
g4
(dp2476
g6
(lp2477
(lp2478
I400
aI1
aa(lp2479
I500
aI1
aa(lp2480
I600
aI2
aa(lp2481
I700
aI0
aa(lp2482
I900
aI3
aa(lp2483
I1100
aI6
aa(lp2484
I1300
aI2
aa(lp2485
I1500
aI3
aa(lp2486
I1800
aI3
aa(lp2487
I2000
aI1
aasg18
(lp2488
(lp2489
I400
aI0
aa(lp2490
I500
aI0
aa(lp2491
I600
aI2
aa(lp2492
I700
aI0
aa(lp2493
I900
aI0
aa(lp2494
I1100
aI2
aa(lp2495
I1300
aI1
aa(lp2496
I1500
aI1
aa(lp2497
I1800
aI1
aa(lp2498
I2000
aI0
aasg367
(lp2499
(lp2500
I400
aI0
aa(lp2501
I500
aI0
aa(lp2502
I600
aI0
aa(lp2503
I700
aI0
aa(lp2504
I900
aI0
aa(lp2505
I1100
aI1
aa(lp2506
I1300
aI0
aa(lp2507
I1500
aI0
aa(lp2508
I1800
aI0
aa(lp2509
I2000
aI0
aasg30
(lp2510
(lp2511
I400
aI0
aa(lp2512
I500
aI0
aa(lp2513
I600
aI0
aa(lp2514
I700
aI0
aa(lp2515
I900
aI2
aa(lp2516
I1100
aI0
aa(lp2517
I1300
aI1
aa(lp2518
I1500
aI0
aa(lp2519
I1800
aI1
aa(lp2520
I2000
aI1
aasg42
(lp2521
(lp2522
I400
aI1
aa(lp2523
I500
aI1
aa(lp2524
I600
aI0
aa(lp2525
I700
aI0
aa(lp2526
I900
aI1
aa(lp2527
I1100
aI3
aa(lp2528
I1300
aI0
aa(lp2529
I1500
aI2
aa(lp2530
I1800
aI1
aa(lp2531
I2000
aI0
aassg54
(dp2532
g6
(lp2533
(lp2534
I400
aI0
aa(lp2535
I500
aI1
aa(lp2536
I600
aI1
aa(lp2537
I700
aI0
aa(lp2538
I900
aI1
aa(lp2539
I1100
aI2
aa(lp2540
I1300
aI2
aa(lp2541
I1500
aI2
aa(lp2542
I1800
aI1
aa(lp2543
I2000
aI0
aasg18
(lp2544
(lp2545
I400
aI0
aa(lp2546
I500
aI0
aa(lp2547
I600
aI1
aa(lp2548
I700
aI0
aa(lp2549
I900
aI0
aa(lp2550
I1100
aI0
aa(lp2551
I1300
aI1
aa(lp2552
I1500
aI1
aa(lp2553
I1800
aI1
aa(lp2554
I2000
aI0
aasg30
(lp2555
(lp2556
I400
aI0
aa(lp2557
I500
aI0
aa(lp2558
I600
aI0
aa(lp2559
I700
aI0
aa(lp2560
I900
aI1
aa(lp2561
I1100
aI0
aa(lp2562
I1300
aI1
aa(lp2563
I1500
aI0
aa(lp2564
I1800
aI0
aa(lp2565
I2000
aI0
aasg42
(lp2566
(lp2567
I400
aI0
aa(lp2568
I500
aI1
aa(lp2569
I600
aI0
aa(lp2570
I700
aI0
aa(lp2571
I900
aI0
aa(lp2572
I1100
aI2
aa(lp2573
I1300
aI0
aa(lp2574
I1500
aI1
aa(lp2575
I1800
aI0
aa(lp2576
I2000
aI0
aassg435
(dp2577
g6
(lp2578
(lp2579
I400
aI0
aa(lp2580
I500
aI0
aa(lp2581
I600
aI0
aa(lp2582
I700
aI0
aa(lp2583
I900
aI0
aa(lp2584
I1100
aI1
aa(lp2585
I1300
aI0
aa(lp2586
I1500
aI0
aa(lp2587
I1800
aI0
aa(lp2588
I2000
aI0
aasg367
(lp2589
(lp2590
I400
aI0
aa(lp2591
I500
aI0
aa(lp2592
I600
aI0
aa(lp2593
I700
aI0
aa(lp2594
I900
aI0
aa(lp2595
I1100
aI1
aa(lp2596
I1300
aI0
aa(lp2597
I1500
aI0
aa(lp2598
I1800
aI0
aa(lp2599
I2000
aI0
aassg89
(dp2600
g6
(lp2601
(lp2602
I400
aI0
aa(lp2603
I500
aI0
aa(lp2604
I600
aI1
aa(lp2605
I700
aI0
aa(lp2606
I900
aI0
aa(lp2607
I1100
aI2
aa(lp2608
I1300
aI0
aa(lp2609
I1500
aI1
aa(lp2610
I1800
aI0
aa(lp2611
I2000
aI0
aasg18
(lp2612
(lp2613
I400
aI0
aa(lp2614
I500
aI0
aa(lp2615
I600
aI1
aa(lp2616
I700
aI0
aa(lp2617
I900
aI0
aa(lp2618
I1100
aI2
aa(lp2619
I1300
aI0
aa(lp2620
I1500
aI0
aa(lp2621
I1800
aI0
aa(lp2622
I2000
aI0
aasg42
(lp2623
(lp2624
I400
aI0
aa(lp2625
I500
aI0
aa(lp2626
I600
aI0
aa(lp2627
I700
aI0
aa(lp2628
I900
aI0
aa(lp2629
I1100
aI0
aa(lp2630
I1300
aI0
aa(lp2631
I1500
aI1
aa(lp2632
I1800
aI0
aa(lp2633
I2000
aI0
aassg124
(dp2634
g6
(lp2635
(lp2636
I400
aI1
aa(lp2637
I500
aI0
aa(lp2638
I600
aI0
aa(lp2639
I700
aI0
aa(lp2640
I900
aI2
aa(lp2641
I1100
aI1
aa(lp2642
I1300
aI0
aa(lp2643
I1500
aI0
aa(lp2644
I1800
aI2
aa(lp2645
I2000
aI1
aasg30
(lp2646
(lp2647
I400
aI0
aa(lp2648
I500
aI0
aa(lp2649
I600
aI0
aa(lp2650
I700
aI0
aa(lp2651
I900
aI1
aa(lp2652
I1100
aI0
aa(lp2653
I1300
aI0
aa(lp2654
I1500
aI0
aa(lp2655
I1800
aI1
aa(lp2656
I2000
aI1
aasg42
(lp2657
(lp2658
I400
aI1
aa(lp2659
I500
aI0
aa(lp2660
I600
aI0
aa(lp2661
I700
aI0
aa(lp2662
I900
aI1
aa(lp2663
I1100
aI1
aa(lp2664
I1300
aI0
aa(lp2665
I1500
aI0
aa(lp2666
I1800
aI1
aa(lp2667
I2000
aI0
aasssV\u5bfc\u5f39\u8131\u9776\u65f6\u89d2\u5ea6\u5173\u7cfb
p2668
(dp2669
g4
(dp2670
g6
(lp2671
(lp2672
I-45
aI6
aa(lp2673
I-25
aI1
aa(lp2674
I-10
aI4
aa(lp2675
I-5
aI0
aa(lp2676
I0
aI3
aa(lp2677
I5
aI0
aa(lp2678
I10
aI0
aa(lp2679
I25
aI0
aa(lp2680
I45
aI0
aa(lp2681
I60
aI2
aasg18
(lp2682
(lp2683
I-45
aI1
aa(lp2684
I-25
aI1
aa(lp2685
I-10
aI1
aa(lp2686
I-5
aI0
aa(lp2687
I0
aI1
aa(lp2688
I5
aI0
aa(lp2689
I10
aI0
aa(lp2690
I25
aI0
aa(lp2691
I45
aI0
aa(lp2692
I60
aI2
aasg30
(lp2693
(lp2694
I-45
aI3
aa(lp2695
I-25
aI0
aa(lp2696
I-10
aI1
aa(lp2697
I-5
aI0
aa(lp2698
I0
aI1
aa(lp2699
I5
aI0
aa(lp2700
I10
aI0
aa(lp2701
I25
aI0
aa(lp2702
I45
aI0
aa(lp2703
I60
aI0
aasg322
(lp2704
(lp2705
I-45
aI0
aa(lp2706
I-25
aI0
aa(lp2707
I-10
aI1
aa(lp2708
I-5
aI0
aa(lp2709
I0
aI0
aa(lp2710
I5
aI0
aa(lp2711
I10
aI0
aa(lp2712
I25
aI0
aa(lp2713
I45
aI0
aa(lp2714
I60
aI0
aasg42
(lp2715
(lp2716
I-45
aI2
aa(lp2717
I-25
aI0
aa(lp2718
I-10
aI1
aa(lp2719
I-5
aI0
aa(lp2720
I0
aI1
aa(lp2721
I5
aI0
aa(lp2722
I10
aI0
aa(lp2723
I25
aI0
aa(lp2724
I45
aI0
aa(lp2725
I60
aI0
aassg54
(dp2726
g6
(lp2727
(lp2728
I-45
aI2
aa(lp2729
I-25
aI0
aa(lp2730
I-10
aI3
aa(lp2731
I-5
aI0
aa(lp2732
I0
aI2
aa(lp2733
I5
aI0
aa(lp2734
I10
aI0
aa(lp2735
I25
aI0
aa(lp2736
I45
aI0
aa(lp2737
I60
aI1
aasg18
(lp2738
(lp2739
I-45
aI0
aa(lp2740
I-25
aI0
aa(lp2741
I-10
aI1
aa(lp2742
I-5
aI0
aa(lp2743
I0
aI0
aa(lp2744
I5
aI0
aa(lp2745
I10
aI0
aa(lp2746
I25
aI0
aa(lp2747
I45
aI0
aa(lp2748
I60
aI1
aasg30
(lp2749
(lp2750
I-45
aI1
aa(lp2751
I-25
aI0
aa(lp2752
I-10
aI0
aa(lp2753
I-5
aI0
aa(lp2754
I0
aI1
aa(lp2755
I5
aI0
aa(lp2756
I10
aI0
aa(lp2757
I25
aI0
aa(lp2758
I45
aI0
aa(lp2759
I60
aI0
aasg322
(lp2760
(lp2761
I-45
aI0
aa(lp2762
I-25
aI0
aa(lp2763
I-10
aI1
aa(lp2764
I-5
aI0
aa(lp2765
I0
aI0
aa(lp2766
I5
aI0
aa(lp2767
I10
aI0
aa(lp2768
I25
aI0
aa(lp2769
I45
aI0
aa(lp2770
I60
aI0
aasg42
(lp2771
(lp2772
I-45
aI1
aa(lp2773
I-25
aI0
aa(lp2774
I-10
aI1
aa(lp2775
I-5
aI0
aa(lp2776
I0
aI1
aa(lp2777
I5
aI0
aa(lp2778
I10
aI0
aa(lp2779
I25
aI0
aa(lp2780
I45
aI0
aa(lp2781
I60
aI0
aassg89
(dp2782
g6
(lp2783
(lp2784
I-45
aI1
aa(lp2785
I-25
aI0
aa(lp2786
I-10
aI0
aa(lp2787
I-5
aI0
aa(lp2788
I0
aI1
aa(lp2789
I5
aI0
aa(lp2790
I10
aI0
aa(lp2791
I25
aI0
aa(lp2792
I45
aI0
aa(lp2793
I60
aI1
aasg18
(lp2794
(lp2795
I-45
aI1
aa(lp2796
I-25
aI0
aa(lp2797
I-10
aI0
aa(lp2798
I-5
aI0
aa(lp2799
I0
aI1
aa(lp2800
I5
aI0
aa(lp2801
I10
aI0
aa(lp2802
I25
aI0
aa(lp2803
I45
aI0
aa(lp2804
I60
aI1
aassg124
(dp2805
g6
(lp2806
(lp2807
I-45
aI3
aa(lp2808
I-25
aI1
aa(lp2809
I-10
aI1
aa(lp2810
I-5
aI0
aa(lp2811
I0
aI0
aa(lp2812
I5
aI0
aa(lp2813
I10
aI0
aa(lp2814
I25
aI0
aa(lp2815
I45
aI0
aa(lp2816
I60
aI0
aasg18
(lp2817
(lp2818
I-45
aI0
aa(lp2819
I-25
aI1
aa(lp2820
I-10
aI0
aa(lp2821
I-5
aI0
aa(lp2822
I0
aI0
aa(lp2823
I5
aI0
aa(lp2824
I10
aI0
aa(lp2825
I25
aI0
aa(lp2826
I45
aI0
aa(lp2827
I60
aI0
aasg30
(lp2828
(lp2829
I-45
aI2
aa(lp2830
I-25
aI0
aa(lp2831
I-10
aI1
aa(lp2832
I-5
aI0
aa(lp2833
I0
aI0
aa(lp2834
I5
aI0
aa(lp2835
I10
aI0
aa(lp2836
I25
aI0
aa(lp2837
I45
aI0
aa(lp2838
I60
aI0
aasg42
(lp2839
(lp2840
I-45
aI1
aa(lp2841
I-25
aI0
aa(lp2842
I-10
aI0
aa(lp2843
I-5
aI0
aa(lp2844
I0
aI0
aa(lp2845
I5
aI0
aa(lp2846
I10
aI0
aa(lp2847
I25
aI0
aa(lp2848
I45
aI0
aa(lp2849
I60
aI0
aasssV\u5bfc\u5f39\u547d\u4e2d\u65f6\u76ee\u6807\u673a\u901f\u5ea6\uff08\u5343\u7c73\u6bcf\u5c0f\u65f6\uff09
p2850
(dp2851
g4
(dp2852
g6
(lp2853
(lp2854
I400
aI1
aa(lp2855
I500
aI1
aa(lp2856
I600
aI0
aa(lp2857
I700
aI0
aa(lp2858
I900
aI3
aa(lp2859
I1100
aI4
aa(lp2860
I1300
aI1
aa(lp2861
I1500
aI1
aa(lp2862
I1800
aI1
aa(lp2863
I2000
aI3
aasg18
(lp2864
(lp2865
I400
aI0
aa(lp2866
I500
aI1
aa(lp2867
I600
aI0
aa(lp2868
I700
aI0
aa(lp2869
I900
aI1
aa(lp2870
I1100
aI2
aa(lp2871
I1300
aI0
aa(lp2872
I1500
aI0
aa(lp2873
I1800
aI0
aa(lp2874
I2000
aI0
aasg30
(lp2875
(lp2876
I400
aI0
aa(lp2877
I500
aI0
aa(lp2878
I600
aI0
aa(lp2879
I700
aI0
aa(lp2880
I900
aI0
aa(lp2881
I1100
aI1
aa(lp2882
I1300
aI0
aa(lp2883
I1500
aI0
aa(lp2884
I1800
aI0
aa(lp2885
I2000
aI1
aasg42
(lp2886
(lp2887
I400
aI1
aa(lp2888
I500
aI0
aa(lp2889
I600
aI0
aa(lp2890
I700
aI0
aa(lp2891
I900
aI2
aa(lp2892
I1100
aI1
aa(lp2893
I1300
aI1
aa(lp2894
I1500
aI1
aa(lp2895
I1800
aI1
aa(lp2896
I2000
aI2
aassg54
(dp2897
g6
(lp2898
(lp2899
I400
aI0
aa(lp2900
I500
aI1
aa(lp2901
I600
aI0
aa(lp2902
I700
aI0
aa(lp2903
I900
aI1
aa(lp2904
I1100
aI1
aa(lp2905
I1300
aI0
aa(lp2906
I1500
aI0
aa(lp2907
I1800
aI0
aa(lp2908
I2000
aI1
aasg18
(lp2909
(lp2910
I400
aI0
aa(lp2911
I500
aI1
aa(lp2912
I600
aI0
aa(lp2913
I700
aI0
aa(lp2914
I900
aI1
aa(lp2915
I1100
aI0
aa(lp2916
I1300
aI0
aa(lp2917
I1500
aI0
aa(lp2918
I1800
aI0
aa(lp2919
I2000
aI0
aasg42
(lp2920
(lp2921
I400
aI0
aa(lp2922
I500
aI0
aa(lp2923
I600
aI0
aa(lp2924
I700
aI0
aa(lp2925
I900
aI0
aa(lp2926
I1100
aI1
aa(lp2927
I1300
aI0
aa(lp2928
I1500
aI0
aa(lp2929
I1800
aI0
aa(lp2930
I2000
aI1
aassg89
(dp2931
g6
(lp2932
(lp2933
I400
aI0
aa(lp2934
I500
aI0
aa(lp2935
I600
aI0
aa(lp2936
I700
aI0
aa(lp2937
I900
aI0
aa(lp2938
I1100
aI2
aa(lp2939
I1300
aI0
aa(lp2940
I1500
aI1
aa(lp2941
I1800
aI0
aa(lp2942
I2000
aI1
aasg18
(lp2943
(lp2944
I400
aI0
aa(lp2945
I500
aI0
aa(lp2946
I600
aI0
aa(lp2947
I700
aI0
aa(lp2948
I900
aI0
aa(lp2949
I1100
aI2
aa(lp2950
I1300
aI0
aa(lp2951
I1500
aI0
aa(lp2952
I1800
aI0
aa(lp2953
I2000
aI0
aasg42
(lp2954
(lp2955
I400
aI0
aa(lp2956
I500
aI0
aa(lp2957
I600
aI0
aa(lp2958
I700
aI0
aa(lp2959
I900
aI0
aa(lp2960
I1100
aI0
aa(lp2961
I1300
aI0
aa(lp2962
I1500
aI1
aa(lp2963
I1800
aI0
aa(lp2964
I2000
aI1
aassg124
(dp2965
g6
(lp2966
(lp2967
I400
aI1
aa(lp2968
I500
aI0
aa(lp2969
I600
aI0
aa(lp2970
I700
aI0
aa(lp2971
I900
aI2
aa(lp2972
I1100
aI1
aa(lp2973
I1300
aI1
aa(lp2974
I1500
aI0
aa(lp2975
I1800
aI1
aa(lp2976
I2000
aI1
aasg30
(lp2977
(lp2978
I400
aI0
aa(lp2979
I500
aI0
aa(lp2980
I600
aI0
aa(lp2981
I700
aI0
aa(lp2982
I900
aI0
aa(lp2983
I1100
aI1
aa(lp2984
I1300
aI0
aa(lp2985
I1500
aI0
aa(lp2986
I1800
aI0
aa(lp2987
I2000
aI1
aasg42
(lp2988
(lp2989
I400
aI1
aa(lp2990
I500
aI0
aa(lp2991
I600
aI0
aa(lp2992
I700
aI0
aa(lp2993
I900
aI2
aa(lp2994
I1100
aI0
aa(lp2995
I1300
aI1
aa(lp2996
I1500
aI0
aa(lp2997
I1800
aI1
aa(lp2998
I2000
aI0
aasssV\u5bfc\u5f39\u547d\u4e2d\u65f6\u76ee\u6807\u673a\u9ad8\u5ea6\uff08\u7c73\uff09
p2999
(dp3000
g4
(dp3001
g6
(lp3002
(lp3003
I1000
aI8
aa(lp3004
I2000
aI5
aa(lp3005
I3000
aI2
aa(lp3006
I4000
aI1
aa(lp3007
I5000
aI0
aa(lp3008
I7000
aI2
aa(lp3009
I9000
aI0
aa(lp3010
I11000
aI0
aa(lp3011
I13000
aI0
aa(lp3012
I20000
aI0
aasg18
(lp3013
(lp3014
I1000
aI2
aa(lp3015
I2000
aI0
aa(lp3016
I3000
aI1
aa(lp3017
I4000
aI1
aa(lp3018
I5000
aI0
aa(lp3019
I7000
aI1
aa(lp3020
I9000
aI0
aa(lp3021
I11000
aI0
aa(lp3022
I13000
aI0
aa(lp3023
I20000
aI0
aasg30
(lp3024
(lp3025
I1000
aI0
aa(lp3026
I2000
aI1
aa(lp3027
I3000
aI1
aa(lp3028
I4000
aI0
aa(lp3029
I5000
aI0
aa(lp3030
I7000
aI1
aa(lp3031
I9000
aI0
aa(lp3032
I11000
aI0
aa(lp3033
I13000
aI0
aa(lp3034
I20000
aI0
aasg42
(lp3035
(lp3036
I1000
aI6
aa(lp3037
I2000
aI4
aa(lp3038
I3000
aI0
aa(lp3039
I4000
aI0
aa(lp3040
I5000
aI0
aa(lp3041
I7000
aI0
aa(lp3042
I9000
aI0
aa(lp3043
I11000
aI0
aa(lp3044
I13000
aI0
aa(lp3045
I20000
aI0
aassg54
(dp3046
g6
(lp3047
(lp3048
I1000
aI2
aa(lp3049
I2000
aI1
aa(lp3050
I3000
aI1
aa(lp3051
I4000
aI0
aa(lp3052
I5000
aI0
aa(lp3053
I7000
aI1
aa(lp3054
I9000
aI0
aa(lp3055
I11000
aI0
aa(lp3056
I13000
aI0
aa(lp3057
I20000
aI0
aasg18
(lp3058
(lp3059
I1000
aI1
aa(lp3060
I2000
aI0
aa(lp3061
I3000
aI1
aa(lp3062
I4000
aI0
aa(lp3063
I5000
aI0
aa(lp3064
I7000
aI1
aa(lp3065
I9000
aI0
aa(lp3066
I11000
aI0
aa(lp3067
I13000
aI0
aa(lp3068
I20000
aI0
aasg42
(lp3069
(lp3070
I1000
aI1
aa(lp3071
I2000
aI1
aa(lp3072
I3000
aI0
aa(lp3073
I4000
aI0
aa(lp3074
I5000
aI0
aa(lp3075
I7000
aI0
aa(lp3076
I9000
aI0
aa(lp3077
I11000
aI0
aa(lp3078
I13000
aI0
aa(lp3079
I20000
aI0
aassg89
(dp3080
g6
(lp3081
(lp3082
I1000
aI2
aa(lp3083
I2000
aI1
aa(lp3084
I3000
aI0
aa(lp3085
I4000
aI1
aa(lp3086
I5000
aI0
aa(lp3087
I7000
aI0
aa(lp3088
I9000
aI0
aa(lp3089
I11000
aI0
aa(lp3090
I13000
aI0
aa(lp3091
I20000
aI0
aasg18
(lp3092
(lp3093
I1000
aI1
aa(lp3094
I2000
aI0
aa(lp3095
I3000
aI0
aa(lp3096
I4000
aI1
aa(lp3097
I5000
aI0
aa(lp3098
I7000
aI0
aa(lp3099
I9000
aI0
aa(lp3100
I11000
aI0
aa(lp3101
I13000
aI0
aa(lp3102
I20000
aI0
aasg42
(lp3103
(lp3104
I1000
aI1
aa(lp3105
I2000
aI1
aa(lp3106
I3000
aI0
aa(lp3107
I4000
aI0
aa(lp3108
I5000
aI0
aa(lp3109
I7000
aI0
aa(lp3110
I9000
aI0
aa(lp3111
I11000
aI0
aa(lp3112
I13000
aI0
aa(lp3113
I20000
aI0
aassg124
(dp3114
g6
(lp3115
(lp3116
I1000
aI4
aa(lp3117
I2000
aI3
aa(lp3118
I3000
aI1
aa(lp3119
I4000
aI0
aa(lp3120
I5000
aI0
aa(lp3121
I7000
aI1
aa(lp3122
I9000
aI0
aa(lp3123
I11000
aI0
aa(lp3124
I13000
aI0
aa(lp3125
I20000
aI0
aasg30
(lp3126
(lp3127
I1000
aI0
aa(lp3128
I2000
aI1
aa(lp3129
I3000
aI1
aa(lp3130
I4000
aI0
aa(lp3131
I5000
aI0
aa(lp3132
I7000
aI1
aa(lp3133
I9000
aI0
aa(lp3134
I11000
aI0
aa(lp3135
I13000
aI0
aa(lp3136
I20000
aI0
aasg42
(lp3137
(lp3138
I1000
aI4
aa(lp3139
I2000
aI2
aa(lp3140
I3000
aI0
aa(lp3141
I4000
aI0
aa(lp3142
I5000
aI0
aa(lp3143
I7000
aI0
aa(lp3144
I9000
aI0
aa(lp3145
I11000
aI0
aa(lp3146
I13000
aI0
aa(lp3147
I20000
aI0
aasssV\u53d1\u5c04\u5bfc\u5f39\u65f6\u8f7d\u673a\u4e0e\u76ee\u6807\u673a\u7684\u9ad8\u5ea6\u5dee\uff08\u7c73\uff09
p3148
(dp3149
g4
(dp3150
g18
(lp3151
(lp3152
I-4000
aI0
aa(lp3153
I-3000
aI0
aa(lp3154
I-2000
aI1
aa(lp3155
I-1000
aI3
aa(lp3156
I0
aI1
aa(lp3157
I1000
aI5
aa(lp3158
I2000
aI2
aa(lp3159
I3000
aI1
aa(lp3160
I4000
aI1
aa(lp3161
I5000
aI0
aasg322
(lp3162
(lp3163
I-4000
aI0
aa(lp3164
I-3000
aI0
aa(lp3165
I-2000
aI0
aa(lp3166
I-1000
aI0
aa(lp3167
I0
aI0
aa(lp3168
I1000
aI1
aa(lp3169
I2000
aI0
aa(lp3170
I3000
aI0
aa(lp3171
I4000
aI0
aa(lp3172
I5000
aI0
aasg6
(lp3173
(lp3174
I-4000
aI1
aa(lp3175
I-3000
aI0
aa(lp3176
I-2000
aI1
aa(lp3177
I-1000
aI8
aa(lp3178
I0
aI5
aa(lp3179
I1000
aI13
aa(lp3180
I2000
aI6
aa(lp3181
I3000
aI1
aa(lp3182
I4000
aI1
aa(lp3183
I5000
aI2
aasg30
(lp3184
(lp3185
I-4000
aI1
aa(lp3186
I-3000
aI0
aa(lp3187
I-2000
aI0
aa(lp3188
I-1000
aI3
aa(lp3189
I0
aI0
aa(lp3190
I1000
aI2
aa(lp3191
I2000
aI2
aa(lp3192
I3000
aI0
aa(lp3193
I4000
aI0
aa(lp3194
I5000
aI1
aasg42
(lp3195
(lp3196
I-4000
aI0
aa(lp3197
I-3000
aI0
aa(lp3198
I-2000
aI0
aa(lp3199
I-1000
aI2
aa(lp3200
I0
aI4
aa(lp3201
I1000
aI5
aa(lp3202
I2000
aI2
aa(lp3203
I3000
aI0
aa(lp3204
I4000
aI0
aa(lp3205
I5000
aI0
aasg367
(lp3206
(lp3207
I-4000
aI0
aa(lp3208
I-3000
aI0
aa(lp3209
I-2000
aI0
aa(lp3210
I-1000
aI0
aa(lp3211
I0
aI0
aa(lp3212
I1000
aI0
aa(lp3213
I2000
aI0
aa(lp3214
I3000
aI0
aa(lp3215
I4000
aI0
aa(lp3216
I5000
aI1
aassg54
(dp3217
g6
(lp3218
(lp3219
I-4000
aI0
aa(lp3220
I-3000
aI0
aa(lp3221
I-2000
aI1
aa(lp3222
I-1000
aI2
aa(lp3223
I0
aI3
aa(lp3224
I1000
aI6
aa(lp3225
I2000
aI3
aa(lp3226
I3000
aI0
aa(lp3227
I4000
aI1
aa(lp3228
I5000
aI1
aasg18
(lp3229
(lp3230
I-4000
aI0
aa(lp3231
I-3000
aI0
aa(lp3232
I-2000
aI1
aa(lp3233
I-1000
aI1
aa(lp3234
I0
aI1
aa(lp3235
I1000
aI3
aa(lp3236
I2000
aI0
aa(lp3237
I3000
aI0
aa(lp3238
I4000
aI1
aa(lp3239
I5000
aI0
aasg30
(lp3240
(lp3241
I-4000
aI0
aa(lp3242
I-3000
aI0
aa(lp3243
I-2000
aI0
aa(lp3244
I-1000
aI0
aa(lp3245
I0
aI0
aa(lp3246
I1000
aI0
aa(lp3247
I2000
aI2
aa(lp3248
I3000
aI0
aa(lp3249
I4000
aI0
aa(lp3250
I5000
aI1
aasg322
(lp3251
(lp3252
I-4000
aI0
aa(lp3253
I-3000
aI0
aa(lp3254
I-2000
aI0
aa(lp3255
I-1000
aI0
aa(lp3256
I0
aI0
aa(lp3257
I1000
aI1
aa(lp3258
I2000
aI0
aa(lp3259
I3000
aI0
aa(lp3260
I4000
aI0
aa(lp3261
I5000
aI0
aasg42
(lp3262
(lp3263
I-4000
aI0
aa(lp3264
I-3000
aI0
aa(lp3265
I-2000
aI0
aa(lp3266
I-1000
aI1
aa(lp3267
I0
aI2
aa(lp3268
I1000
aI2
aa(lp3269
I2000
aI1
aa(lp3270
I3000
aI0
aa(lp3271
I4000
aI0
aa(lp3272
I5000
aI0
aassg435
(dp3273
g6
(lp3274
(lp3275
I-4000
aI0
aa(lp3276
I-3000
aI0
aa(lp3277
I-2000
aI0
aa(lp3278
I-1000
aI0
aa(lp3279
I0
aI0
aa(lp3280
I1000
aI0
aa(lp3281
I2000
aI0
aa(lp3282
I3000
aI0
aa(lp3283
I4000
aI0
aa(lp3284
I5000
aI1
aasg367
(lp3285
(lp3286
I-4000
aI0
aa(lp3287
I-3000
aI0
aa(lp3288
I-2000
aI0
aa(lp3289
I-1000
aI0
aa(lp3290
I0
aI0
aa(lp3291
I1000
aI0
aa(lp3292
I2000
aI0
aa(lp3293
I3000
aI0
aa(lp3294
I4000
aI0
aa(lp3295
I5000
aI1
aassg89
(dp3296
g6
(lp3297
(lp3298
I-4000
aI0
aa(lp3299
I-3000
aI0
aa(lp3300
I-2000
aI0
aa(lp3301
I-1000
aI2
aa(lp3302
I0
aI0
aa(lp3303
I1000
aI3
aa(lp3304
I2000
aI2
aa(lp3305
I3000
aI0
aa(lp3306
I4000
aI0
aa(lp3307
I5000
aI0
aasg18
(lp3308
(lp3309
I-4000
aI0
aa(lp3310
I-3000
aI0
aa(lp3311
I-2000
aI0
aa(lp3312
I-1000
aI2
aa(lp3313
I0
aI0
aa(lp3314
I1000
aI2
aa(lp3315
I2000
aI2
aa(lp3316
I3000
aI0
aa(lp3317
I4000
aI0
aa(lp3318
I5000
aI0
aasg42
(lp3319
(lp3320
I-4000
aI0
aa(lp3321
I-3000
aI0
aa(lp3322
I-2000
aI0
aa(lp3323
I-1000
aI0
aa(lp3324
I0
aI0
aa(lp3325
I1000
aI1
aa(lp3326
I2000
aI0
aa(lp3327
I3000
aI0
aa(lp3328
I4000
aI0
aa(lp3329
I5000
aI0
aassg124
(dp3330
g6
(lp3331
(lp3332
I-4000
aI1
aa(lp3333
I-3000
aI0
aa(lp3334
I-2000
aI0
aa(lp3335
I-1000
aI4
aa(lp3336
I0
aI2
aa(lp3337
I1000
aI4
aa(lp3338
I2000
aI1
aa(lp3339
I3000
aI1
aa(lp3340
I4000
aI0
aa(lp3341
I5000
aI0
aasg18
(lp3342
(lp3343
I-4000
aI0
aa(lp3344
I-3000
aI0
aa(lp3345
I-2000
aI0
aa(lp3346
I-1000
aI0
aa(lp3347
I0
aI0
aa(lp3348
I1000
aI0
aa(lp3349
I2000
aI0
aa(lp3350
I3000
aI1
aa(lp3351
I4000
aI0
aa(lp3352
I5000
aI0
aasg30
(lp3353
(lp3354
I-4000
aI1
aa(lp3355
I-3000
aI0
aa(lp3356
I-2000
aI0
aa(lp3357
I-1000
aI3
aa(lp3358
I0
aI0
aa(lp3359
I1000
aI2
aa(lp3360
I2000
aI0
aa(lp3361
I3000
aI0
aa(lp3362
I4000
aI0
aa(lp3363
I5000
aI0
aasg42
(lp3364
(lp3365
I-4000
aI0
aa(lp3366
I-3000
aI0
aa(lp3367
I-2000
aI0
aa(lp3368
I-1000
aI1
aa(lp3369
I0
aI2
aa(lp3370
I1000
aI2
aa(lp3371
I2000
aI1
aa(lp3372
I3000
aI0
aa(lp3373
I4000
aI0
aa(lp3374
I5000
aI0
aasssV\u53d1\u5c04\u5bfc\u5f39\u65f6\u8f7d\u673a\u4e0e\u76ee\u6807\u673a\u7684\u89d2\u5ea6\u5173\u7cfb
p3375
(dp3376
g4
(dp3377
g18
(lp3378
(lp3379
I-45
aI0
aa(lp3380
I-25
aI0
aa(lp3381
I-10
aI1
aa(lp3382
I-5
aI0
aa(lp3383
I0
aI4
aa(lp3384
I5
aI7
aa(lp3385
I10
aI2
aa(lp3386
I25
aI0
aa(lp3387
I45
aI0
aa(lp3388
I60
aI0
aasg322
(lp3389
(lp3390
I-45
aI0
aa(lp3391
I-25
aI0
aa(lp3392
I-10
aI0
aa(lp3393
I-5
aI0
aa(lp3394
I0
aI0
aa(lp3395
I5
aI1
aa(lp3396
I10
aI0
aa(lp3397
I25
aI0
aa(lp3398
I45
aI0
aa(lp3399
I60
aI0
aasg6
(lp3400
(lp3401
I-45
aI0
aa(lp3402
I-25
aI0
aa(lp3403
I-10
aI2
aa(lp3404
I-5
aI0
aa(lp3405
I0
aI12
aa(lp3406
I5
aI20
aa(lp3407
I10
aI3
aa(lp3408
I25
aI0
aa(lp3409
I45
aI0
aa(lp3410
I60
aI1
aasg30
(lp3411
(lp3412
I-45
aI0
aa(lp3413
I-25
aI0
aa(lp3414
I-10
aI0
aa(lp3415
I-5
aI0
aa(lp3416
I0
aI3
aa(lp3417
I5
aI4
aa(lp3418
I10
aI1
aa(lp3419
I25
aI0
aa(lp3420
I45
aI0
aa(lp3421
I60
aI1
aasg42
(lp3422
(lp3423
I-45
aI0
aa(lp3424
I-25
aI0
aa(lp3425
I-10
aI1
aa(lp3426
I-5
aI0
aa(lp3427
I0
aI4
aa(lp3428
I5
aI8
aa(lp3429
I10
aI0
aa(lp3430
I25
aI0
aa(lp3431
I45
aI0
aa(lp3432
I60
aI0
aasg367
(lp3433
(lp3434
I-45
aI0
aa(lp3435
I-25
aI0
aa(lp3436
I-10
aI0
aa(lp3437
I-5
aI0
aa(lp3438
I0
aI1
aa(lp3439
I5
aI0
aa(lp3440
I10
aI0
aa(lp3441
I25
aI0
aa(lp3442
I45
aI0
aa(lp3443
I60
aI0
aassg54
(dp3444
g6
(lp3445
(lp3446
I-45
aI0
aa(lp3447
I-25
aI0
aa(lp3448
I-10
aI1
aa(lp3449
I-5
aI0
aa(lp3450
I0
aI7
aa(lp3451
I5
aI9
aa(lp3452
I10
aI0
aa(lp3453
I25
aI0
aa(lp3454
I45
aI0
aa(lp3455
I60
aI0
aasg18
(lp3456
(lp3457
I-45
aI0
aa(lp3458
I-25
aI0
aa(lp3459
I-10
aI1
aa(lp3460
I-5
aI0
aa(lp3461
I0
aI3
aa(lp3462
I5
aI3
aa(lp3463
I10
aI0
aa(lp3464
I25
aI0
aa(lp3465
I45
aI0
aa(lp3466
I60
aI0
aasg30
(lp3467
(lp3468
I-45
aI0
aa(lp3469
I-25
aI0
aa(lp3470
I-10
aI0
aa(lp3471
I-5
aI0
aa(lp3472
I0
aI2
aa(lp3473
I5
aI1
aa(lp3474
I10
aI0
aa(lp3475
I25
aI0
aa(lp3476
I45
aI0
aa(lp3477
I60
aI0
aasg322
(lp3478
(lp3479
I-45
aI0
aa(lp3480
I-25
aI0
aa(lp3481
I-10
aI0
aa(lp3482
I-5
aI0
aa(lp3483
I0
aI0
aa(lp3484
I5
aI1
aa(lp3485
I10
aI0
aa(lp3486
I25
aI0
aa(lp3487
I45
aI0
aa(lp3488
I60
aI0
aasg42
(lp3489
(lp3490
I-45
aI0
aa(lp3491
I-25
aI0
aa(lp3492
I-10
aI0
aa(lp3493
I-5
aI0
aa(lp3494
I0
aI2
aa(lp3495
I5
aI4
aa(lp3496
I10
aI0
aa(lp3497
I25
aI0
aa(lp3498
I45
aI0
aa(lp3499
I60
aI0
aassg435
(dp3500
g6
(lp3501
(lp3502
I-45
aI0
aa(lp3503
I-25
aI0
aa(lp3504
I-10
aI0
aa(lp3505
I-5
aI0
aa(lp3506
I0
aI1
aa(lp3507
I5
aI0
aa(lp3508
I10
aI0
aa(lp3509
I25
aI0
aa(lp3510
I45
aI0
aa(lp3511
I60
aI0
aasg367
(lp3512
(lp3513
I-45
aI0
aa(lp3514
I-25
aI0
aa(lp3515
I-10
aI0
aa(lp3516
I-5
aI0
aa(lp3517
I0
aI1
aa(lp3518
I5
aI0
aa(lp3519
I10
aI0
aa(lp3520
I25
aI0
aa(lp3521
I45
aI0
aa(lp3522
I60
aI0
aassg89
(dp3523
g6
(lp3524
(lp3525
I-45
aI0
aa(lp3526
I-25
aI0
aa(lp3527
I-10
aI1
aa(lp3528
I-5
aI0
aa(lp3529
I0
aI1
aa(lp3530
I5
aI3
aa(lp3531
I10
aI2
aa(lp3532
I25
aI0
aa(lp3533
I45
aI0
aa(lp3534
I60
aI0
aasg18
(lp3535
(lp3536
I-45
aI0
aa(lp3537
I-25
aI0
aa(lp3538
I-10
aI0
aa(lp3539
I-5
aI0
aa(lp3540
I0
aI1
aa(lp3541
I5
aI3
aa(lp3542
I10
aI2
aa(lp3543
I25
aI0
aa(lp3544
I45
aI0
aa(lp3545
I60
aI0
aasg42
(lp3546
(lp3547
I-45
aI0
aa(lp3548
I-25
aI0
aa(lp3549
I-10
aI1
aa(lp3550
I-5
aI0
aa(lp3551
I0
aI0
aa(lp3552
I5
aI0
aa(lp3553
I10
aI0
aa(lp3554
I25
aI0
aa(lp3555
I45
aI0
aa(lp3556
I60
aI0
aassg124
(dp3557
g6
(lp3558
(lp3559
I-45
aI0
aa(lp3560
I-25
aI0
aa(lp3561
I-10
aI0
aa(lp3562
I-5
aI0
aa(lp3563
I0
aI3
aa(lp3564
I5
aI8
aa(lp3565
I10
aI1
aa(lp3566
I25
aI0
aa(lp3567
I45
aI0
aa(lp3568
I60
aI1
aasg18
(lp3569
(lp3570
I-45
aI0
aa(lp3571
I-25
aI0
aa(lp3572
I-10
aI0
aa(lp3573
I-5
aI0
aa(lp3574
I0
aI0
aa(lp3575
I5
aI1
aa(lp3576
I10
aI0
aa(lp3577
I25
aI0
aa(lp3578
I45
aI0
aa(lp3579
I60
aI0
aasg30
(lp3580
(lp3581
I-45
aI0
aa(lp3582
I-25
aI0
aa(lp3583
I-10
aI0
aa(lp3584
I-5
aI0
aa(lp3585
I0
aI1
aa(lp3586
I5
aI3
aa(lp3587
I10
aI1
aa(lp3588
I25
aI0
aa(lp3589
I45
aI0
aa(lp3590
I60
aI1
aasg42
(lp3591
(lp3592
I-45
aI0
aa(lp3593
I-25
aI0
aa(lp3594
I-10
aI0
aa(lp3595
I-5
aI0
aa(lp3596
I0
aI2
aa(lp3597
I5
aI4
aa(lp3598
I10
aI0
aa(lp3599
I25
aI0
aa(lp3600
I45
aI0
aa(lp3601
I60
aI0
aasssV\u53d1\u5c04\u5bfc\u5f39\u65f6\u8f7d\u673a\u653b\u89d2
p3602
(dp3603
g4
(dp3604
g18
(lp3605
(lp3606
I-45
aI0
aa(lp3607
I-25
aI0
aa(lp3608
I-10
aI5
aa(lp3609
I-5
aI6
aa(lp3610
I0
aI18
aa(lp3611
I5
aI11
aa(lp3612
I10
aI1
aa(lp3613
I25
aI4
aa(lp3614
I45
aI0
aa(lp3615
I60
aI0
aasg322
(lp3616
(lp3617
I-45
aI2
aa(lp3618
I-25
aI0
aa(lp3619
I-10
aI2
aa(lp3620
I-5
aI0
aa(lp3621
I0
aI1
aa(lp3622
I5
aI3
aa(lp3623
I10
aI3
aa(lp3624
I25
aI0
aa(lp3625
I45
aI0
aa(lp3626
I60
aI0
aasg6
(lp3627
(lp3628
I-45
aI2
aa(lp3629
I-25
aI0
aa(lp3630
I-10
aI15
aa(lp3631
I-5
aI23
aa(lp3632
I0
aI53
aa(lp3633
I5
aI41
aa(lp3634
I10
aI10
aa(lp3635
I25
aI8
aa(lp3636
I45
aI0
aa(lp3637
I60
aI0
aasg30
(lp3638
(lp3639
I-45
aI0
aa(lp3640
I-25
aI0
aa(lp3641
I-10
aI2
aa(lp3642
I-5
aI10
aa(lp3643
I0
aI17
aa(lp3644
I5
aI10
aa(lp3645
I10
aI2
aa(lp3646
I25
aI1
aa(lp3647
I45
aI0
aa(lp3648
I60
aI0
aasg1211
(lp3649
(lp3650
I-45
aI0
aa(lp3651
I-25
aI0
aa(lp3652
I-10
aI1
aa(lp3653
I-5
aI1
aa(lp3654
I0
aI4
aa(lp3655
I5
aI0
aa(lp3656
I10
aI0
aa(lp3657
I25
aI0
aa(lp3658
I45
aI0
aa(lp3659
I60
aI0
aasg42
(lp3660
(lp3661
I-45
aI0
aa(lp3662
I-25
aI0
aa(lp3663
I-10
aI3
aa(lp3664
I-5
aI4
aa(lp3665
I0
aI7
aa(lp3666
I5
aI14
aa(lp3667
I10
aI3
aa(lp3668
I25
aI2
aa(lp3669
I45
aI0
aa(lp3670
I60
aI0
aasg367
(lp3671
(lp3672
I-45
aI0
aa(lp3673
I-25
aI0
aa(lp3674
I-10
aI1
aa(lp3675
I-5
aI2
aa(lp3676
I0
aI5
aa(lp3677
I5
aI3
aa(lp3678
I10
aI0
aa(lp3679
I25
aI1
aa(lp3680
I45
aI0
aa(lp3681
I60
aI0
aasg1770
(lp3682
(lp3683
I-45
aI0
aa(lp3684
I-25
aI0
aa(lp3685
I-10
aI1
aa(lp3686
I-5
aI0
aa(lp3687
I0
aI1
aa(lp3688
I5
aI0
aa(lp3689
I10
aI1
aa(lp3690
I25
aI0
aa(lp3691
I45
aI0
aa(lp3692
I60
aI0
aassg54
(dp3693
g6
(lp3694
(lp3695
I-45
aI2
aa(lp3696
I-25
aI0
aa(lp3697
I-10
aI9
aa(lp3698
I-5
aI4
aa(lp3699
I0
aI15
aa(lp3700
I5
aI15
aa(lp3701
I10
aI2
aa(lp3702
I25
aI5
aa(lp3703
I45
aI0
aa(lp3704
I60
aI0
aasg18
(lp3705
(lp3706
I-45
aI0
aa(lp3707
I-25
aI0
aa(lp3708
I-10
aI5
aa(lp3709
I-5
aI2
aa(lp3710
I0
aI9
aa(lp3711
I5
aI7
aa(lp3712
I10
aI0
aa(lp3713
I25
aI2
aa(lp3714
I45
aI0
aa(lp3715
I60
aI0
aasg30
(lp3716
(lp3717
I-45
aI0
aa(lp3718
I-25
aI0
aa(lp3719
I-10
aI1
aa(lp3720
I-5
aI1
aa(lp3721
I0
aI2
aa(lp3722
I5
aI0
aa(lp3723
I10
aI0
aa(lp3724
I25
aI1
aa(lp3725
I45
aI0
aa(lp3726
I60
aI0
aasg322
(lp3727
(lp3728
I-45
aI2
aa(lp3729
I-25
aI0
aa(lp3730
I-10
aI0
aa(lp3731
I-5
aI0
aa(lp3732
I0
aI1
aa(lp3733
I5
aI3
aa(lp3734
I10
aI0
aa(lp3735
I25
aI0
aa(lp3736
I45
aI0
aa(lp3737
I60
aI0
aasg42
(lp3738
(lp3739
I-45
aI0
aa(lp3740
I-25
aI0
aa(lp3741
I-10
aI3
aa(lp3742
I-5
aI1
aa(lp3743
I0
aI3
aa(lp3744
I5
aI5
aa(lp3745
I10
aI2
aa(lp3746
I25
aI2
aa(lp3747
I45
aI0
aa(lp3748
I60
aI0
aassg435
(dp3749
g6
(lp3750
(lp3751
I-45
aI0
aa(lp3752
I-25
aI0
aa(lp3753
I-10
aI2
aa(lp3754
I-5
aI3
aa(lp3755
I0
aI9
aa(lp3756
I5
aI3
aa(lp3757
I10
aI0
aa(lp3758
I25
aI1
aa(lp3759
I45
aI0
aa(lp3760
I60
aI0
aasg367
(lp3761
(lp3762
I-45
aI0
aa(lp3763
I-25
aI0
aa(lp3764
I-10
aI1
aa(lp3765
I-5
aI2
aa(lp3766
I0
aI5
aa(lp3767
I5
aI3
aa(lp3768
I10
aI0
aa(lp3769
I25
aI1
aa(lp3770
I45
aI0
aa(lp3771
I60
aI0
aasg1211
(lp3772
(lp3773
I-45
aI0
aa(lp3774
I-25
aI0
aa(lp3775
I-10
aI1
aa(lp3776
I-5
aI1
aa(lp3777
I0
aI4
aa(lp3778
I5
aI0
aa(lp3779
I10
aI0
aa(lp3780
I25
aI0
aa(lp3781
I45
aI0
aa(lp3782
I60
aI0
aassg89
(dp3783
g6
(lp3784
(lp3785
I-45
aI0
aa(lp3786
I-25
aI0
aa(lp3787
I-10
aI2
aa(lp3788
I-5
aI4
aa(lp3789
I0
aI7
aa(lp3790
I5
aI6
aa(lp3791
I10
aI2
aa(lp3792
I25
aI2
aa(lp3793
I45
aI0
aa(lp3794
I60
aI0
aasg18
(lp3795
(lp3796
I-45
aI0
aa(lp3797
I-25
aI0
aa(lp3798
I-10
aI0
aa(lp3799
I-5
aI4
aa(lp3800
I0
aI6
aa(lp3801
I5
aI4
aa(lp3802
I10
aI0
aa(lp3803
I25
aI2
aa(lp3804
I45
aI0
aa(lp3805
I60
aI0
aasg322
(lp3806
(lp3807
I-45
aI0
aa(lp3808
I-25
aI0
aa(lp3809
I-10
aI1
aa(lp3810
I-5
aI0
aa(lp3811
I0
aI0
aa(lp3812
I5
aI0
aa(lp3813
I10
aI0
aa(lp3814
I25
aI0
aa(lp3815
I45
aI0
aa(lp3816
I60
aI0
aasg1770
(lp3817
(lp3818
I-45
aI0
aa(lp3819
I-25
aI0
aa(lp3820
I-10
aI1
aa(lp3821
I-5
aI0
aa(lp3822
I0
aI1
aa(lp3823
I5
aI0
aa(lp3824
I10
aI1
aa(lp3825
I25
aI0
aa(lp3826
I45
aI0
aa(lp3827
I60
aI0
aasg42
(lp3828
(lp3829
I-45
aI0
aa(lp3830
I-25
aI0
aa(lp3831
I-10
aI0
aa(lp3832
I-5
aI0
aa(lp3833
I0
aI0
aa(lp3834
I5
aI2
aa(lp3835
I10
aI1
aa(lp3836
I25
aI0
aa(lp3837
I45
aI0
aa(lp3838
I60
aI0
aassg124
(dp3839
g6
(lp3840
(lp3841
I-45
aI0
aa(lp3842
I-25
aI0
aa(lp3843
I-10
aI2
aa(lp3844
I-5
aI12
aa(lp3845
I0
aI22
aa(lp3846
I5
aI17
aa(lp3847
I10
aI6
aa(lp3848
I25
aI0
aa(lp3849
I45
aI0
aa(lp3850
I60
aI0
aasg18
(lp3851
(lp3852
I-45
aI0
aa(lp3853
I-25
aI0
aa(lp3854
I-10
aI0
aa(lp3855
I-5
aI0
aa(lp3856
I0
aI3
aa(lp3857
I5
aI0
aa(lp3858
I10
aI1
aa(lp3859
I25
aI0
aa(lp3860
I45
aI0
aa(lp3861
I60
aI0
aasg30
(lp3862
(lp3863
I-45
aI0
aa(lp3864
I-25
aI0
aa(lp3865
I-10
aI1
aa(lp3866
I-5
aI9
aa(lp3867
I0
aI15
aa(lp3868
I5
aI10
aa(lp3869
I10
aI2
aa(lp3870
I25
aI0
aa(lp3871
I45
aI0
aa(lp3872
I60
aI0
aasg322
(lp3873
(lp3874
I-45
aI0
aa(lp3875
I-25
aI0
aa(lp3876
I-10
aI1
aa(lp3877
I-5
aI0
aa(lp3878
I0
aI0
aa(lp3879
I5
aI0
aa(lp3880
I10
aI3
aa(lp3881
I25
aI0
aa(lp3882
I45
aI0
aa(lp3883
I60
aI0
aasg42
(lp3884
(lp3885
I-45
aI0
aa(lp3886
I-25
aI0
aa(lp3887
I-10
aI0
aa(lp3888
I-5
aI3
aa(lp3889
I0
aI4
aa(lp3890
I5
aI7
aa(lp3891
I10
aI0
aa(lp3892
I25
aI0
aa(lp3893
I45
aI0
aa(lp3894
I60
aI0
aasssV\u53d1\u5c04\u5bfc\u5f39\u65f6\u76ee\u6807\u673a\u8fc7\u8f7d (g)
p3895
(dp3896
g4
(dp3897
g6
(lp3898
(lp3899
I1
aI3
aa(lp3900
I2
aI3
aa(lp3901
I3
aI1
aa(lp3902
I4
aI1
aa(lp3903
I5
aI1
aa(lp3904
I6
aI0
aa(lp3905
I7
aI0
aa(lp3906
I8
aI0
aa(lp3907
I9
aI0
aa(lp3908
I10
aI1
aasg18
(lp3909
(lp3910
I1
aI0
aa(lp3911
I2
aI2
aa(lp3912
I3
aI1
aa(lp3913
I4
aI1
aa(lp3914
I5
aI0
aa(lp3915
I6
aI0
aa(lp3916
I7
aI0
aa(lp3917
I8
aI0
aa(lp3918
I9
aI0
aa(lp3919
I10
aI0
aasg367
(lp3920
(lp3921
I1
aI0
aa(lp3922
I2
aI1
aa(lp3923
I3
aI0
aa(lp3924
I4
aI0
aa(lp3925
I5
aI0
aa(lp3926
I6
aI0
aa(lp3927
I7
aI0
aa(lp3928
I8
aI0
aa(lp3929
I9
aI0
aa(lp3930
I10
aI0
aasg30
(lp3931
(lp3932
I1
aI1
aa(lp3933
I2
aI0
aa(lp3934
I3
aI0
aa(lp3935
I4
aI0
aa(lp3936
I5
aI0
aa(lp3937
I6
aI0
aa(lp3938
I7
aI0
aa(lp3939
I8
aI0
aa(lp3940
I9
aI0
aa(lp3941
I10
aI1
aasg42
(lp3942
(lp3943
I1
aI2
aa(lp3944
I2
aI0
aa(lp3945
I3
aI0
aa(lp3946
I4
aI0
aa(lp3947
I5
aI1
aa(lp3948
I6
aI0
aa(lp3949
I7
aI0
aa(lp3950
I8
aI0
aa(lp3951
I9
aI0
aa(lp3952
I10
aI0
aassg54
(dp3953
g6
(lp3954
(lp3955
I1
aI2
aa(lp3956
I2
aI1
aa(lp3957
I3
aI0
aa(lp3958
I4
aI1
aa(lp3959
I5
aI1
aa(lp3960
I6
aI0
aa(lp3961
I7
aI0
aa(lp3962
I8
aI0
aa(lp3963
I9
aI0
aa(lp3964
I10
aI0
aasg18
(lp3965
(lp3966
I1
aI0
aa(lp3967
I2
aI1
aa(lp3968
I3
aI0
aa(lp3969
I4
aI1
aa(lp3970
I5
aI0
aa(lp3971
I6
aI0
aa(lp3972
I7
aI0
aa(lp3973
I8
aI0
aa(lp3974
I9
aI0
aa(lp3975
I10
aI0
aasg42
(lp3976
(lp3977
I1
aI2
aa(lp3978
I2
aI0
aa(lp3979
I3
aI0
aa(lp3980
I4
aI0
aa(lp3981
I5
aI1
aa(lp3982
I6
aI0
aa(lp3983
I7
aI0
aa(lp3984
I8
aI0
aa(lp3985
I9
aI0
aa(lp3986
I10
aI0
aassg435
(dp3987
g6
(lp3988
(lp3989
I1
aI0
aa(lp3990
I2
aI1
aa(lp3991
I3
aI0
aa(lp3992
I4
aI0
aa(lp3993
I5
aI0
aa(lp3994
I6
aI0
aa(lp3995
I7
aI0
aa(lp3996
I8
aI0
aa(lp3997
I9
aI0
aa(lp3998
I10
aI0
aasg367
(lp3999
(lp4000
I1
aI0
aa(lp4001
I2
aI1
aa(lp4002
I3
aI0
aa(lp4003
I4
aI0
aa(lp4004
I5
aI0
aa(lp4005
I6
aI0
aa(lp4006
I7
aI0
aa(lp4007
I8
aI0
aa(lp4008
I9
aI0
aa(lp4009
I10
aI0
aassg89
(dp4010
g6
(lp4011
(lp4012
I1
aI0
aa(lp4013
I2
aI1
aa(lp4014
I3
aI1
aa(lp4015
I4
aI0
aa(lp4016
I5
aI0
aa(lp4017
I6
aI0
aa(lp4018
I7
aI0
aa(lp4019
I8
aI0
aa(lp4020
I9
aI0
aa(lp4021
I10
aI0
aasg18
(lp4022
(lp4023
I1
aI0
aa(lp4024
I2
aI1
aa(lp4025
I3
aI1
aa(lp4026
I4
aI0
aa(lp4027
I5
aI0
aa(lp4028
I6
aI0
aa(lp4029
I7
aI0
aa(lp4030
I8
aI0
aa(lp4031
I9
aI0
aa(lp4032
I10
aI0
aassg124
(dp4033
g6
(lp4034
(lp4035
I1
aI1
aa(lp4036
I2
aI0
aa(lp4037
I3
aI0
aa(lp4038
I4
aI0
aa(lp4039
I5
aI0
aa(lp4040
I6
aI0
aa(lp4041
I7
aI0
aa(lp4042
I8
aI0
aa(lp4043
I9
aI0
aa(lp4044
I10
aI1
aasg30
(lp4045
(lp4046
I1
aI1
aa(lp4047
I2
aI0
aa(lp4048
I3
aI0
aa(lp4049
I4
aI0
aa(lp4050
I5
aI0
aa(lp4051
I6
aI0
aa(lp4052
I7
aI0
aa(lp4053
I8
aI0
aa(lp4054
I9
aI0
aa(lp4055
I10
aI1
aasssV\u5bfc\u5f39\u8131\u9776\u65f6\u76ee\u6807\u673a\u9ad8\u5ea6\uff08\u7c73\uff09
p4056
(dp4057
g4
(dp4058
g18
(lp4059
(lp4060
I1000
aI7
aa(lp4061
I2000
aI0
aa(lp4062
I3000
aI0
aa(lp4063
I4000
aI1
aa(lp4064
I5000
aI0
aa(lp4065
I7000
aI0
aa(lp4066
I9000
aI0
aa(lp4067
I11000
aI0
aa(lp4068
I13000
aI0
aa(lp4069
I20000
aI0
aasg322
(lp4070
(lp4071
I1000
aI1
aa(lp4072
I2000
aI0
aa(lp4073
I3000
aI0
aa(lp4074
I4000
aI0
aa(lp4075
I5000
aI0
aa(lp4076
I7000
aI0
aa(lp4077
I9000
aI0
aa(lp4078
I11000
aI0
aa(lp4079
I13000
aI0
aa(lp4080
I20000
aI0
aasg6
(lp4081
(lp4082
I1000
aI20
aa(lp4083
I2000
aI1
aa(lp4084
I3000
aI1
aa(lp4085
I4000
aI1
aa(lp4086
I5000
aI0
aa(lp4087
I7000
aI0
aa(lp4088
I9000
aI0
aa(lp4089
I11000
aI0
aa(lp4090
I13000
aI0
aa(lp4091
I20000
aI0
aasg30
(lp4092
(lp4093
I1000
aI6
aa(lp4094
I2000
aI1
aa(lp4095
I3000
aI0
aa(lp4096
I4000
aI0
aa(lp4097
I5000
aI0
aa(lp4098
I7000
aI0
aa(lp4099
I9000
aI0
aa(lp4100
I11000
aI0
aa(lp4101
I13000
aI0
aa(lp4102
I20000
aI0
aasg42
(lp4103
(lp4104
I1000
aI5
aa(lp4105
I2000
aI0
aa(lp4106
I3000
aI1
aa(lp4107
I4000
aI0
aa(lp4108
I5000
aI0
aa(lp4109
I7000
aI0
aa(lp4110
I9000
aI0
aa(lp4111
I11000
aI0
aa(lp4112
I13000
aI0
aa(lp4113
I20000
aI0
aasg367
(lp4114
(lp4115
I1000
aI1
aa(lp4116
I2000
aI0
aa(lp4117
I3000
aI0
aa(lp4118
I4000
aI0
aa(lp4119
I5000
aI0
aa(lp4120
I7000
aI0
aa(lp4121
I9000
aI0
aa(lp4122
I11000
aI0
aa(lp4123
I13000
aI0
aa(lp4124
I20000
aI0
aassg54
(dp4125
g6
(lp4126
(lp4127
I1000
aI10
aa(lp4128
I2000
aI0
aa(lp4129
I3000
aI1
aa(lp4130
I4000
aI0
aa(lp4131
I5000
aI0
aa(lp4132
I7000
aI0
aa(lp4133
I9000
aI0
aa(lp4134
I11000
aI0
aa(lp4135
I13000
aI0
aa(lp4136
I20000
aI0
aasg18
(lp4137
(lp4138
I1000
aI3
aa(lp4139
I2000
aI0
aa(lp4140
I3000
aI0
aa(lp4141
I4000
aI0
aa(lp4142
I5000
aI0
aa(lp4143
I7000
aI0
aa(lp4144
I9000
aI0
aa(lp4145
I11000
aI0
aa(lp4146
I13000
aI0
aa(lp4147
I20000
aI0
aasg30
(lp4148
(lp4149
I1000
aI3
aa(lp4150
I2000
aI0
aa(lp4151
I3000
aI0
aa(lp4152
I4000
aI0
aa(lp4153
I5000
aI0
aa(lp4154
I7000
aI0
aa(lp4155
I9000
aI0
aa(lp4156
I11000
aI0
aa(lp4157
I13000
aI0
aa(lp4158
I20000
aI0
aasg322
(lp4159
(lp4160
I1000
aI1
aa(lp4161
I2000
aI0
aa(lp4162
I3000
aI0
aa(lp4163
I4000
aI0
aa(lp4164
I5000
aI0
aa(lp4165
I7000
aI0
aa(lp4166
I9000
aI0
aa(lp4167
I11000
aI0
aa(lp4168
I13000
aI0
aa(lp4169
I20000
aI0
aasg42
(lp4170
(lp4171
I1000
aI3
aa(lp4172
I2000
aI0
aa(lp4173
I3000
aI1
aa(lp4174
I4000
aI0
aa(lp4175
I5000
aI0
aa(lp4176
I7000
aI0
aa(lp4177
I9000
aI0
aa(lp4178
I11000
aI0
aa(lp4179
I13000
aI0
aa(lp4180
I20000
aI0
aassg435
(dp4181
g6
(lp4182
(lp4183
I1000
aI1
aa(lp4184
I2000
aI0
aa(lp4185
I3000
aI0
aa(lp4186
I4000
aI0
aa(lp4187
I5000
aI0
aa(lp4188
I7000
aI0
aa(lp4189
I9000
aI0
aa(lp4190
I11000
aI0
aa(lp4191
I13000
aI0
aa(lp4192
I20000
aI0
aasg367
(lp4193
(lp4194
I1000
aI1
aa(lp4195
I2000
aI0
aa(lp4196
I3000
aI0
aa(lp4197
I4000
aI0
aa(lp4198
I5000
aI0
aa(lp4199
I7000
aI0
aa(lp4200
I9000
aI0
aa(lp4201
I11000
aI0
aa(lp4202
I13000
aI0
aa(lp4203
I20000
aI0
aassg89
(dp4204
g6
(lp4205
(lp4206
I1000
aI3
aa(lp4207
I2000
aI0
aa(lp4208
I3000
aI0
aa(lp4209
I4000
aI1
aa(lp4210
I5000
aI0
aa(lp4211
I7000
aI0
aa(lp4212
I9000
aI0
aa(lp4213
I11000
aI0
aa(lp4214
I13000
aI0
aa(lp4215
I20000
aI0
aasg18
(lp4216
(lp4217
I1000
aI3
aa(lp4218
I2000
aI0
aa(lp4219
I3000
aI0
aa(lp4220
I4000
aI1
aa(lp4221
I5000
aI0
aa(lp4222
I7000
aI0
aa(lp4223
I9000
aI0
aa(lp4224
I11000
aI0
aa(lp4225
I13000
aI0
aa(lp4226
I20000
aI0
aassg124
(dp4227
g6
(lp4228
(lp4229
I1000
aI6
aa(lp4230
I2000
aI1
aa(lp4231
I3000
aI0
aa(lp4232
I4000
aI0
aa(lp4233
I5000
aI0
aa(lp4234
I7000
aI0
aa(lp4235
I9000
aI0
aa(lp4236
I11000
aI0
aa(lp4237
I13000
aI0
aa(lp4238
I20000
aI0
aasg18
(lp4239
(lp4240
I1000
aI1
aa(lp4241
I2000
aI0
aa(lp4242
I3000
aI0
aa(lp4243
I4000
aI0
aa(lp4244
I5000
aI0
aa(lp4245
I7000
aI0
aa(lp4246
I9000
aI0
aa(lp4247
I11000
aI0
aa(lp4248
I13000
aI0
aa(lp4249
I20000
aI0
aasg30
(lp4250
(lp4251
I1000
aI3
aa(lp4252
I2000
aI1
aa(lp4253
I3000
aI0
aa(lp4254
I4000
aI0
aa(lp4255
I5000
aI0
aa(lp4256
I7000
aI0
aa(lp4257
I9000
aI0
aa(lp4258
I11000
aI0
aa(lp4259
I13000
aI0
aa(lp4260
I20000
aI0
aasg42
(lp4261
(lp4262
I1000
aI2
aa(lp4263
I2000
aI0
aa(lp4264
I3000
aI0
aa(lp4265
I4000
aI0
aa(lp4266
I5000
aI0
aa(lp4267
I7000
aI0
aa(lp4268
I9000
aI0
aa(lp4269
I11000
aI0
aa(lp4270
I13000
aI0
aa(lp4271
I20000
aI0
aasssV\u7a7a
(dp4272
s.